680x0 MACRO ASSEMBLER   Version 5.00   (c) 1992-2005 Peter J. Fondse

Date: 09 Mar 2019      Time: 14:35:10          Source: C:\M68K\PROGRAMS\DEBUGMONITORCODE\IDE68K_OUTPUT\SPEEDTEST.SRC

                       1          section   code
                       2   **********************************************************************************************************
                       3   * CSTART.ASM  -  C startup-code
                       4   *
                       5   *          Initialises the system prior to running the users main() program
                       6   *
                       7   *          1) Sets up the user program stack pointer
                       8   *          2) Switches to User mode in the 68000
                       9   *          3) Enables All Interrupts 1-7 on 68000
                      10   *          4) Copies all initialised C program variables from Rom to Ram prior to running main()
                      11   *
                      12   **********************************************************************************************************
00000000              13                   align
                      14   
                      15   
                      16   **********************************************************************************************************
                      17   * The Following ORG Statement marks the address of the start of the this CStart Program
                      18   *
                      19   * The debug Monitor and Flash Load and Program routines assume your program lives here
                      20   **********************************************************************************************************
08000000              21                   org       $08000000
08000000  46FC 2000   22   start:          move.w    #$2000,SR             clear interrupts to enable all, move to supervisor mode
                      23   
                      24   ******************************************************************************************
                      25   * Set unitialised global variables to 0 at startup
                      26   ******************************************************************************************
08000004  207C 0800   27   mainloop        movea.l   #BssStart,a0          point a0 to the start of the initialised data section held in ROM
08000008  2F0E      
0800000A  203C 0001   28                   move.l    #BssLength,d0         figure out how many bytes of C program variables data to copy
0800000E  D520      
08000010  6700 0024   29                   beq       go_main               if no data to copy go straight to program
08000014  10FC 0000   30   Zeroinit        move.b    #0,(a0)+              copy the C program initialise variables from rom to ram
08000018  5380        31                   subq.l    #1,d0
0800001A  66F8        32                   bne       Zeroinit
                      33   
                      34   *******************************************************************************************
                      35   * last minute initialisation before calling main
                      36   *******************************************************************************************
                      37   
0800001C  23FC FFFF   38                   move.l    #-1,__ungetbuf         required for use of scanf() etc in C programs
08000020  FFFF 0800 
08000024  2DD4      
08000026  42B9 0800   39                   clr.l     __allocp               used by malloc() in C
0800002A  2DD8      
0800002C  23FC 0802   40                   move.l    #heap,__heap           pointer to free memory
08000030  042E 0800 
08000034  2DDC      
08000036  4EB9 0800   41   go_main         jsr       _main
0800003A  0B8A      
0800003C  60C2        42                   bra       start
                      43   
                      44   ; C:\M68K\PROGRAMS\DEBUGMONITORCODE\SPEED TEST\SPEEDTEST.C - Compiled by CC68K  Version 5.00 (c) 1991-2005  Peter J. Fondse
                      45   ; #include <stdio.h>
                      46   ; // #include <ctype.h>
                      47   ; /*********************************************************************************************
                      48   ; **  RS232 port addresses
                      49   ; *********************************************************************************************/
                      50   ; #define RS232_Control     *(volatile unsigned char *)(0x00400040)
                      51   ; #define RS232_Status      *(volatile unsigned char *)(0x00400040)
                      52   ; #define RS232_TxData      *(volatile unsigned char *)(0x00400042)
                      53   ; #define RS232_RxData      *(volatile unsigned char *)(0x00400042)
                      54   ; #define RS232_Baud        *(volatile unsigned char *)(0x00400044)
                      55   ; /*************************************************************
                      56   ; ** SPI Controller registers
                      57   ; **************************************************************/
                      58   ; // SPI Registers
                      59   ; #define SPI_Control         (*(volatile unsigned char *)(0x00408020))
                      60   ; #define SPI_Status          (*(volatile unsigned char *)(0x00408022))
                      61   ; #define SPI_Data            (*(volatile unsigned char *)(0x00408024))
                      62   ; #define SPI_Ext             (*(volatile unsigned char *)(0x00408026))
                      63   ; #define SPI_CS              (*(volatile unsigned char *)(0x00408028))
                      64   ; // these two macros enable or disable the flash memory chip enable off SSN_O[7..0]
                      65   ; // in this case we assume there is only 1 device connected to SSN_O[0] so we can
                      66   ; // write hex FE to the SPI_CS to enable it (the enable on the flash chip is active low)
                      67   ; // and write FF to disable it
                      68   ; #define   Enable_SPI_CS()             SPI_CS = 0xFE
                      69   ; #define   Disable_SPI_CS()            SPI_CS = 0xFF
                      70   ; /*******************************************************************************************
                      71   ; ** Function Prototypes
                      72   ; *******************************************************************************************/
                      73   ; int _getch( void )
                      74   ; {
                      75   __getch:
0800003E  4E56 FFFC   76          link      A6,#-4
                      77   ; char c ;
                      78   ; while((RS232_Status & (char)(0x01)) != (char)(0x01))    // wait for Rx bit in 6850 serial comms chip status register to be '1'
                      79   _getch_1:
08000042  1039 0040   80          move.b    4194368,D0
08000046  0040      
08000048  C03C 0001   81          and.b     #1,D0
0800004C  0C00 0001   82          cmp.b     #1,D0
08000050  6702        83          beq.s     _getch_3
08000052  60EE        84          bra       _getch_1
                      85   _getch_3:
                      86   ; ;
                      87   ; return (RS232_RxData & (char)(0x7f));                   // read received character, mask off top bit and return as 7 bit ASCII character
08000054  1039 0040   88          move.b    4194370,D0
08000058  0042      
0800005A  C0BC 0000   89          and.l     #255,D0
0800005E  00FF      
08000060  C0BC 0000   90          and.l     #127,D0
08000064  007F      
08000066  4E5E        91          unlk      A6
08000068  4E75        92          rts
                      93   ; }
                      94   ; int _putch( int c)
                      95   ; {
                      96   __putch:
0800006A  4E56 0000   97          link      A6,#0
                      98   ; while((RS232_Status & (char)(0x02)) != (char)(0x02))    // wait for Tx bit in status register or 6850 serial comms chip to be '1'
                      99   _putch_1:
0800006E  1039 0040  100          move.b    4194368,D0
08000072  0040      
08000074  C03C 0002  101          and.b     #2,D0
08000078  0C00 0002  102          cmp.b     #2,D0
0800007C  6702       103          beq.s     _putch_3
0800007E  60EE       104          bra       _putch_1
                     105   _putch_3:
                     106   ; ;
                     107   ; RS232_TxData = (c & (char)(0x7f));                      // write to the data register to output the character (mask off bit 8 to keep it 7 bit ASCII)
08000080  202E 0008  108          move.l    8(A6),D0
08000084  C0BC 0000  109          and.l     #127,D0
08000088  007F      
0800008A  13C0 0040  110          move.b    D0,4194370
0800008E  0042      
                     111   ; return c ;                                              // putchar() expects the character to be returned
08000090  202E 0008  112          move.l    8(A6),D0
08000094  4E5E       113          unlk      A6
08000096  4E75       114          rts
                     115   ; }
                     116   ; int a[100][100], b[100][100], c[100][100];
                     117   ; int i, j, k, sum;
                     118   ; void SpeedTest(void){
                     119   _SpeedTest:
08000098  48E7 003C  120          movem.l   A2/A3/A4/A5,-(A7)
0800009C  45F9 0802  121          lea       _i.L,A2
080000A0  03CE      
080000A2  47F9 0802  122          lea       _k.L,A3
080000A6  03D6      
080000A8  49F9 0802  123          lea       _j.L,A4
080000AC  03D2      
080000AE  4BF9 0802  124          lea       _sum.L,A5
080000B2  03DA      
                     125   ; printf("\n\nStart.....");
080000B4  4879 0800  126          pea       @speedt~1_1.L
080000B8  2D8C      
080000BA  4EB9 0800  127          jsr       _printf
080000BE  1718      
080000C0  584F       128          addq.w    #4,A7
                     129   ; for(i=0; i <50; i ++)  {
080000C2  4292       130          clr.l     (A2)
                     131   SpeedTest_1:
080000C4  2012       132          move.l    (A2),D0
080000C6  0C80 0000  133          cmp.l     #50,D0
080000CA  0032      
080000CC  6C00 0AA8  134          bge       SpeedTest_3
                     135   ; printf("%d ", i);
080000D0  2F12       136          move.l    (A2),-(A7)
080000D2  4879 0800  137          pea       @speedt~1_2.L
080000D6  2D9A      
080000D8  4EB9 0800  138          jsr       _printf
080000DC  1718      
080000DE  504F       139          addq.w    #8,A7
                     140   ; for(j=0; j < 50; j++)  {
080000E0  4294       141          clr.l     (A4)
                     142   SpeedTest_4:
080000E2  2014       143          move.l    (A4),D0
080000E4  0C80 0000  144          cmp.l     #50,D0
080000E8  0032      
080000EA  6C00 0A84  145          bge       SpeedTest_6
                     146   ; sum = 0 ;
080000EE  4295       147          clr.l     (A5)
                     148   ; for(k=0; k <50; k++)   {
080000F0  4293       149          clr.l     (A3)
                     150   SpeedTest_7:
080000F2  2013       151          move.l    (A3),D0
080000F4  0C80 0000  152          cmp.l     #50,D0
080000F8  0032      
080000FA  6C00 0A58  153          bge       SpeedTest_9
                     154   ; sum = sum + b[i][k] * b[k][j] + a[i][k] * c[i][j];
080000FE  2015       155          move.l    (A5),D0
08000100  2212       156          move.l    (A2),D1
08000102  C3FC 0190  157          muls      #400,D1
08000106  41F9 0800  158          lea       _b.L,A0
0800010A  CB4E      
0800010C  D1C1       159          add.l     D1,A0
0800010E  2213       160          move.l    (A3),D1
08000110  E589       161          lsl.l     #2,D1
08000112  2F00       162          move.l    D0,-(A7)
08000114  2013       163          move.l    (A3),D0
08000116  C1FC 0190  164          muls      #400,D0
0800011A  43F9 0800  165          lea       _b.L,A1
0800011E  CB4E      
08000120  D3C0       166          add.l     D0,A1
08000122  201F       167          move.l    (A7)+,D0
08000124  2F00       168          move.l    D0,-(A7)
08000126  2014       169          move.l    (A4),D0
08000128  E588       170          lsl.l     #2,D0
0800012A  2F30 1800  171          move.l    0(A0,D1.L),-(A7)
0800012E  2F31 0800  172          move.l    0(A1,D0.L),-(A7)
08000132  4EB9 0800  173          jsr       LMUL
08000136  0BB8      
08000138  2217       174          move.l    (A7),D1
0800013A  504F       175          addq.w    #8,A7
0800013C  201F       176          move.l    (A7)+,D0
0800013E  D081       177          add.l     D1,D0
08000140  2212       178          move.l    (A2),D1
08000142  C3FC 0190  179          muls      #400,D1
08000146  41F9 0800  180          lea       _a.L,A0
0800014A  2F0E      
0800014C  D1C1       181          add.l     D1,A0
0800014E  2213       182          move.l    (A3),D1
08000150  E589       183          lsl.l     #2,D1
08000152  2F00       184          move.l    D0,-(A7)
08000154  2012       185          move.l    (A2),D0
08000156  C1FC 0190  186          muls      #400,D0
0800015A  43F9 0801  187          lea       _c.L,A1
0800015E  678E      
08000160  D3C0       188          add.l     D0,A1
08000162  201F       189          move.l    (A7)+,D0
08000164  2F00       190          move.l    D0,-(A7)
08000166  2014       191          move.l    (A4),D0
08000168  E588       192          lsl.l     #2,D0
0800016A  2F30 1800  193          move.l    0(A0,D1.L),-(A7)
0800016E  2F31 0800  194          move.l    0(A1,D0.L),-(A7)
08000172  4EB9 0800  195          jsr       LMUL
08000176  0BB8      
08000178  2217       196          move.l    (A7),D1
0800017A  504F       197          addq.w    #8,A7
0800017C  201F       198          move.l    (A7)+,D0
0800017E  D081       199          add.l     D1,D0
08000180  2A80       200          move.l    D0,(A5)
                     201   ; sum = sum + b[i][k] * b[k][j] + a[i][k] * c[i][j];
08000182  2015       202          move.l    (A5),D0
08000184  2212       203          move.l    (A2),D1
08000186  C3FC 0190  204          muls      #400,D1
0800018A  41F9 0800  205          lea       _b.L,A0
0800018E  CB4E      
08000190  D1C1       206          add.l     D1,A0
08000192  2213       207          move.l    (A3),D1
08000194  E589       208          lsl.l     #2,D1
08000196  2F00       209          move.l    D0,-(A7)
08000198  2013       210          move.l    (A3),D0
0800019A  C1FC 0190  211          muls      #400,D0
0800019E  43F9 0800  212          lea       _b.L,A1
080001A2  CB4E      
080001A4  D3C0       213          add.l     D0,A1
080001A6  201F       214          move.l    (A7)+,D0
080001A8  2F00       215          move.l    D0,-(A7)
080001AA  2014       216          move.l    (A4),D0
080001AC  E588       217          lsl.l     #2,D0
080001AE  2F30 1800  218          move.l    0(A0,D1.L),-(A7)
080001B2  2F31 0800  219          move.l    0(A1,D0.L),-(A7)
080001B6  4EB9 0800  220          jsr       LMUL
080001BA  0BB8      
080001BC  2217       221          move.l    (A7),D1
080001BE  504F       222          addq.w    #8,A7
080001C0  201F       223          move.l    (A7)+,D0
080001C2  D081       224          add.l     D1,D0
080001C4  2212       225          move.l    (A2),D1
080001C6  C3FC 0190  226          muls      #400,D1
080001CA  41F9 0800  227          lea       _a.L,A0
080001CE  2F0E      
080001D0  D1C1       228          add.l     D1,A0
080001D2  2213       229          move.l    (A3),D1
080001D4  E589       230          lsl.l     #2,D1
080001D6  2F00       231          move.l    D0,-(A7)
080001D8  2012       232          move.l    (A2),D0
080001DA  C1FC 0190  233          muls      #400,D0
080001DE  43F9 0801  234          lea       _c.L,A1
080001E2  678E      
080001E4  D3C0       235          add.l     D0,A1
080001E6  201F       236          move.l    (A7)+,D0
080001E8  2F00       237          move.l    D0,-(A7)
080001EA  2014       238          move.l    (A4),D0
080001EC  E588       239          lsl.l     #2,D0
080001EE  2F30 1800  240          move.l    0(A0,D1.L),-(A7)
080001F2  2F31 0800  241          move.l    0(A1,D0.L),-(A7)
080001F6  4EB9 0800  242          jsr       LMUL
080001FA  0BB8      
080001FC  2217       243          move.l    (A7),D1
080001FE  504F       244          addq.w    #8,A7
08000200  201F       245          move.l    (A7)+,D0
08000202  D081       246          add.l     D1,D0
08000204  2A80       247          move.l    D0,(A5)
                     248   ; sum = sum + b[i][k] * b[k][j] + a[i][k] * c[i][j];
08000206  2015       249          move.l    (A5),D0
08000208  2212       250          move.l    (A2),D1
0800020A  C3FC 0190  251          muls      #400,D1
0800020E  41F9 0800  252          lea       _b.L,A0
08000212  CB4E      
08000214  D1C1       253          add.l     D1,A0
08000216  2213       254          move.l    (A3),D1
08000218  E589       255          lsl.l     #2,D1
0800021A  2F00       256          move.l    D0,-(A7)
0800021C  2013       257          move.l    (A3),D0
0800021E  C1FC 0190  258          muls      #400,D0
08000222  43F9 0800  259          lea       _b.L,A1
08000226  CB4E      
08000228  D3C0       260          add.l     D0,A1
0800022A  201F       261          move.l    (A7)+,D0
0800022C  2F00       262          move.l    D0,-(A7)
0800022E  2014       263          move.l    (A4),D0
08000230  E588       264          lsl.l     #2,D0
08000232  2F30 1800  265          move.l    0(A0,D1.L),-(A7)
08000236  2F31 0800  266          move.l    0(A1,D0.L),-(A7)
0800023A  4EB9 0800  267          jsr       LMUL
0800023E  0BB8      
08000240  2217       268          move.l    (A7),D1
08000242  504F       269          addq.w    #8,A7
08000244  201F       270          move.l    (A7)+,D0
08000246  D081       271          add.l     D1,D0
08000248  2212       272          move.l    (A2),D1
0800024A  C3FC 0190  273          muls      #400,D1
0800024E  41F9 0800  274          lea       _a.L,A0
08000252  2F0E      
08000254  D1C1       275          add.l     D1,A0
08000256  2213       276          move.l    (A3),D1
08000258  E589       277          lsl.l     #2,D1
0800025A  2F00       278          move.l    D0,-(A7)
0800025C  2012       279          move.l    (A2),D0
0800025E  C1FC 0190  280          muls      #400,D0
08000262  43F9 0801  281          lea       _c.L,A1
08000266  678E      
08000268  D3C0       282          add.l     D0,A1
0800026A  201F       283          move.l    (A7)+,D0
0800026C  2F00       284          move.l    D0,-(A7)
0800026E  2014       285          move.l    (A4),D0
08000270  E588       286          lsl.l     #2,D0
08000272  2F30 1800  287          move.l    0(A0,D1.L),-(A7)
08000276  2F31 0800  288          move.l    0(A1,D0.L),-(A7)
0800027A  4EB9 0800  289          jsr       LMUL
0800027E  0BB8      
08000280  2217       290          move.l    (A7),D1
08000282  504F       291          addq.w    #8,A7
08000284  201F       292          move.l    (A7)+,D0
08000286  D081       293          add.l     D1,D0
08000288  2A80       294          move.l    D0,(A5)
                     295   ; sum = sum + b[i][k] * b[k][j] + a[i][k] * c[i][j];
0800028A  2015       296          move.l    (A5),D0
0800028C  2212       297          move.l    (A2),D1
0800028E  C3FC 0190  298          muls      #400,D1
08000292  41F9 0800  299          lea       _b.L,A0
08000296  CB4E      
08000298  D1C1       300          add.l     D1,A0
0800029A  2213       301          move.l    (A3),D1
0800029C  E589       302          lsl.l     #2,D1
0800029E  2F00       303          move.l    D0,-(A7)
080002A0  2013       304          move.l    (A3),D0
080002A2  C1FC 0190  305          muls      #400,D0
080002A6  43F9 0800  306          lea       _b.L,A1
080002AA  CB4E      
080002AC  D3C0       307          add.l     D0,A1
080002AE  201F       308          move.l    (A7)+,D0
080002B0  2F00       309          move.l    D0,-(A7)
080002B2  2014       310          move.l    (A4),D0
080002B4  E588       311          lsl.l     #2,D0
080002B6  2F30 1800  312          move.l    0(A0,D1.L),-(A7)
080002BA  2F31 0800  313          move.l    0(A1,D0.L),-(A7)
080002BE  4EB9 0800  314          jsr       LMUL
080002C2  0BB8      
080002C4  2217       315          move.l    (A7),D1
080002C6  504F       316          addq.w    #8,A7
080002C8  201F       317          move.l    (A7)+,D0
080002CA  D081       318          add.l     D1,D0
080002CC  2212       319          move.l    (A2),D1
080002CE  C3FC 0190  320          muls      #400,D1
080002D2  41F9 0800  321          lea       _a.L,A0
080002D6  2F0E      
080002D8  D1C1       322          add.l     D1,A0
080002DA  2213       323          move.l    (A3),D1
080002DC  E589       324          lsl.l     #2,D1
080002DE  2F00       325          move.l    D0,-(A7)
080002E0  2012       326          move.l    (A2),D0
080002E2  C1FC 0190  327          muls      #400,D0
080002E6  43F9 0801  328          lea       _c.L,A1
080002EA  678E      
080002EC  D3C0       329          add.l     D0,A1
080002EE  201F       330          move.l    (A7)+,D0
080002F0  2F00       331          move.l    D0,-(A7)
080002F2  2014       332          move.l    (A4),D0
080002F4  E588       333          lsl.l     #2,D0
080002F6  2F30 1800  334          move.l    0(A0,D1.L),-(A7)
080002FA  2F31 0800  335          move.l    0(A1,D0.L),-(A7)
080002FE  4EB9 0800  336          jsr       LMUL
08000302  0BB8      
08000304  2217       337          move.l    (A7),D1
08000306  504F       338          addq.w    #8,A7
08000308  201F       339          move.l    (A7)+,D0
0800030A  D081       340          add.l     D1,D0
0800030C  2A80       341          move.l    D0,(A5)
                     342   ; sum = sum + b[i][k] * b[k][j] + a[i][k] * c[i][j];
0800030E  2015       343          move.l    (A5),D0
08000310  2212       344          move.l    (A2),D1
08000312  C3FC 0190  345          muls      #400,D1
08000316  41F9 0800  346          lea       _b.L,A0
0800031A  CB4E      
0800031C  D1C1       347          add.l     D1,A0
0800031E  2213       348          move.l    (A3),D1
08000320  E589       349          lsl.l     #2,D1
08000322  2F00       350          move.l    D0,-(A7)
08000324  2013       351          move.l    (A3),D0
08000326  C1FC 0190  352          muls      #400,D0
0800032A  43F9 0800  353          lea       _b.L,A1
0800032E  CB4E      
08000330  D3C0       354          add.l     D0,A1
08000332  201F       355          move.l    (A7)+,D0
08000334  2F00       356          move.l    D0,-(A7)
08000336  2014       357          move.l    (A4),D0
08000338  E588       358          lsl.l     #2,D0
0800033A  2F30 1800  359          move.l    0(A0,D1.L),-(A7)
0800033E  2F31 0800  360          move.l    0(A1,D0.L),-(A7)
08000342  4EB9 0800  361          jsr       LMUL
08000346  0BB8      
08000348  2217       362          move.l    (A7),D1
0800034A  504F       363          addq.w    #8,A7
0800034C  201F       364          move.l    (A7)+,D0
0800034E  D081       365          add.l     D1,D0
08000350  2212       366          move.l    (A2),D1
08000352  C3FC 0190  367          muls      #400,D1
08000356  41F9 0800  368          lea       _a.L,A0
0800035A  2F0E      
0800035C  D1C1       369          add.l     D1,A0
0800035E  2213       370          move.l    (A3),D1
08000360  E589       371          lsl.l     #2,D1
08000362  2F00       372          move.l    D0,-(A7)
08000364  2012       373          move.l    (A2),D0
08000366  C1FC 0190  374          muls      #400,D0
0800036A  43F9 0801  375          lea       _c.L,A1
0800036E  678E      
08000370  D3C0       376          add.l     D0,A1
08000372  201F       377          move.l    (A7)+,D0
08000374  2F00       378          move.l    D0,-(A7)
08000376  2014       379          move.l    (A4),D0
08000378  E588       380          lsl.l     #2,D0
0800037A  2F30 1800  381          move.l    0(A0,D1.L),-(A7)
0800037E  2F31 0800  382          move.l    0(A1,D0.L),-(A7)
08000382  4EB9 0800  383          jsr       LMUL
08000386  0BB8      
08000388  2217       384          move.l    (A7),D1
0800038A  504F       385          addq.w    #8,A7
0800038C  201F       386          move.l    (A7)+,D0
0800038E  D081       387          add.l     D1,D0
08000390  2A80       388          move.l    D0,(A5)
                     389   ; sum = sum + b[i][k] * b[k][j] + a[i][k] * c[i][j];
08000392  2015       390          move.l    (A5),D0
08000394  2212       391          move.l    (A2),D1
08000396  C3FC 0190  392          muls      #400,D1
0800039A  41F9 0800  393          lea       _b.L,A0
0800039E  CB4E      
080003A0  D1C1       394          add.l     D1,A0
080003A2  2213       395          move.l    (A3),D1
080003A4  E589       396          lsl.l     #2,D1
080003A6  2F00       397          move.l    D0,-(A7)
080003A8  2013       398          move.l    (A3),D0
080003AA  C1FC 0190  399          muls      #400,D0
080003AE  43F9 0800  400          lea       _b.L,A1
080003B2  CB4E      
080003B4  D3C0       401          add.l     D0,A1
080003B6  201F       402          move.l    (A7)+,D0
080003B8  2F00       403          move.l    D0,-(A7)
080003BA  2014       404          move.l    (A4),D0
080003BC  E588       405          lsl.l     #2,D0
080003BE  2F30 1800  406          move.l    0(A0,D1.L),-(A7)
080003C2  2F31 0800  407          move.l    0(A1,D0.L),-(A7)
080003C6  4EB9 0800  408          jsr       LMUL
080003CA  0BB8      
080003CC  2217       409          move.l    (A7),D1
080003CE  504F       410          addq.w    #8,A7
080003D0  201F       411          move.l    (A7)+,D0
080003D2  D081       412          add.l     D1,D0
080003D4  2212       413          move.l    (A2),D1
080003D6  C3FC 0190  414          muls      #400,D1
080003DA  41F9 0800  415          lea       _a.L,A0
080003DE  2F0E      
080003E0  D1C1       416          add.l     D1,A0
080003E2  2213       417          move.l    (A3),D1
080003E4  E589       418          lsl.l     #2,D1
080003E6  2F00       419          move.l    D0,-(A7)
080003E8  2012       420          move.l    (A2),D0
080003EA  C1FC 0190  421          muls      #400,D0
080003EE  43F9 0801  422          lea       _c.L,A1
080003F2  678E      
080003F4  D3C0       423          add.l     D0,A1
080003F6  201F       424          move.l    (A7)+,D0
080003F8  2F00       425          move.l    D0,-(A7)
080003FA  2014       426          move.l    (A4),D0
080003FC  E588       427          lsl.l     #2,D0
080003FE  2F30 1800  428          move.l    0(A0,D1.L),-(A7)
08000402  2F31 0800  429          move.l    0(A1,D0.L),-(A7)
08000406  4EB9 0800  430          jsr       LMUL
0800040A  0BB8      
0800040C  2217       431          move.l    (A7),D1
0800040E  504F       432          addq.w    #8,A7
08000410  201F       433          move.l    (A7)+,D0
08000412  D081       434          add.l     D1,D0
08000414  2A80       435          move.l    D0,(A5)
                     436   ; sum = sum + b[i][k] * b[k][j] + a[i][k] * c[i][j];
08000416  2015       437          move.l    (A5),D0
08000418  2212       438          move.l    (A2),D1
0800041A  C3FC 0190  439          muls      #400,D1
0800041E  41F9 0800  440          lea       _b.L,A0
08000422  CB4E      
08000424  D1C1       441          add.l     D1,A0
08000426  2213       442          move.l    (A3),D1
08000428  E589       443          lsl.l     #2,D1
0800042A  2F00       444          move.l    D0,-(A7)
0800042C  2013       445          move.l    (A3),D0
0800042E  C1FC 0190  446          muls      #400,D0
08000432  43F9 0800  447          lea       _b.L,A1
08000436  CB4E      
08000438  D3C0       448          add.l     D0,A1
0800043A  201F       449          move.l    (A7)+,D0
0800043C  2F00       450          move.l    D0,-(A7)
0800043E  2014       451          move.l    (A4),D0
08000440  E588       452          lsl.l     #2,D0
08000442  2F30 1800  453          move.l    0(A0,D1.L),-(A7)
08000446  2F31 0800  454          move.l    0(A1,D0.L),-(A7)
0800044A  4EB9 0800  455          jsr       LMUL
0800044E  0BB8      
08000450  2217       456          move.l    (A7),D1
08000452  504F       457          addq.w    #8,A7
08000454  201F       458          move.l    (A7)+,D0
08000456  D081       459          add.l     D1,D0
08000458  2212       460          move.l    (A2),D1
0800045A  C3FC 0190  461          muls      #400,D1
0800045E  41F9 0800  462          lea       _a.L,A0
08000462  2F0E      
08000464  D1C1       463          add.l     D1,A0
08000466  2213       464          move.l    (A3),D1
08000468  E589       465          lsl.l     #2,D1
0800046A  2F00       466          move.l    D0,-(A7)
0800046C  2012       467          move.l    (A2),D0
0800046E  C1FC 0190  468          muls      #400,D0
08000472  43F9 0801  469          lea       _c.L,A1
08000476  678E      
08000478  D3C0       470          add.l     D0,A1
0800047A  201F       471          move.l    (A7)+,D0
0800047C  2F00       472          move.l    D0,-(A7)
0800047E  2014       473          move.l    (A4),D0
08000480  E588       474          lsl.l     #2,D0
08000482  2F30 1800  475          move.l    0(A0,D1.L),-(A7)
08000486  2F31 0800  476          move.l    0(A1,D0.L),-(A7)
0800048A  4EB9 0800  477          jsr       LMUL
0800048E  0BB8      
08000490  2217       478          move.l    (A7),D1
08000492  504F       479          addq.w    #8,A7
08000494  201F       480          move.l    (A7)+,D0
08000496  D081       481          add.l     D1,D0
08000498  2A80       482          move.l    D0,(A5)
                     483   ; sum = sum + b[i][k] * b[k][j] + a[i][k] * c[i][j];
0800049A  2015       484          move.l    (A5),D0
0800049C  2212       485          move.l    (A2),D1
0800049E  C3FC 0190  486          muls      #400,D1
080004A2  41F9 0800  487          lea       _b.L,A0
080004A6  CB4E      
080004A8  D1C1       488          add.l     D1,A0
080004AA  2213       489          move.l    (A3),D1
080004AC  E589       490          lsl.l     #2,D1
080004AE  2F00       491          move.l    D0,-(A7)
080004B0  2013       492          move.l    (A3),D0
080004B2  C1FC 0190  493          muls      #400,D0
080004B6  43F9 0800  494          lea       _b.L,A1
080004BA  CB4E      
080004BC  D3C0       495          add.l     D0,A1
080004BE  201F       496          move.l    (A7)+,D0
080004C0  2F00       497          move.l    D0,-(A7)
080004C2  2014       498          move.l    (A4),D0
080004C4  E588       499          lsl.l     #2,D0
080004C6  2F30 1800  500          move.l    0(A0,D1.L),-(A7)
080004CA  2F31 0800  501          move.l    0(A1,D0.L),-(A7)
080004CE  4EB9 0800  502          jsr       LMUL
080004D2  0BB8      
080004D4  2217       503          move.l    (A7),D1
080004D6  504F       504          addq.w    #8,A7
080004D8  201F       505          move.l    (A7)+,D0
080004DA  D081       506          add.l     D1,D0
080004DC  2212       507          move.l    (A2),D1
080004DE  C3FC 0190  508          muls      #400,D1
080004E2  41F9 0800  509          lea       _a.L,A0
080004E6  2F0E      
080004E8  D1C1       510          add.l     D1,A0
080004EA  2213       511          move.l    (A3),D1
080004EC  E589       512          lsl.l     #2,D1
080004EE  2F00       513          move.l    D0,-(A7)
080004F0  2012       514          move.l    (A2),D0
080004F2  C1FC 0190  515          muls      #400,D0
080004F6  43F9 0801  516          lea       _c.L,A1
080004FA  678E      
080004FC  D3C0       517          add.l     D0,A1
080004FE  201F       518          move.l    (A7)+,D0
08000500  2F00       519          move.l    D0,-(A7)
08000502  2014       520          move.l    (A4),D0
08000504  E588       521          lsl.l     #2,D0
08000506  2F30 1800  522          move.l    0(A0,D1.L),-(A7)
0800050A  2F31 0800  523          move.l    0(A1,D0.L),-(A7)
0800050E  4EB9 0800  524          jsr       LMUL
08000512  0BB8      
08000514  2217       525          move.l    (A7),D1
08000516  504F       526          addq.w    #8,A7
08000518  201F       527          move.l    (A7)+,D0
0800051A  D081       528          add.l     D1,D0
0800051C  2A80       529          move.l    D0,(A5)
                     530   ; sum = sum + b[i][k] * b[k][j] + a[i][k] * c[i][j];
0800051E  2015       531          move.l    (A5),D0
08000520  2212       532          move.l    (A2),D1
08000522  C3FC 0190  533          muls      #400,D1
08000526  41F9 0800  534          lea       _b.L,A0
0800052A  CB4E      
0800052C  D1C1       535          add.l     D1,A0
0800052E  2213       536          move.l    (A3),D1
08000530  E589       537          lsl.l     #2,D1
08000532  2F00       538          move.l    D0,-(A7)
08000534  2013       539          move.l    (A3),D0
08000536  C1FC 0190  540          muls      #400,D0
0800053A  43F9 0800  541          lea       _b.L,A1
0800053E  CB4E      
08000540  D3C0       542          add.l     D0,A1
08000542  201F       543          move.l    (A7)+,D0
08000544  2F00       544          move.l    D0,-(A7)
08000546  2014       545          move.l    (A4),D0
08000548  E588       546          lsl.l     #2,D0
0800054A  2F30 1800  547          move.l    0(A0,D1.L),-(A7)
0800054E  2F31 0800  548          move.l    0(A1,D0.L),-(A7)
08000552  4EB9 0800  549          jsr       LMUL
08000556  0BB8      
08000558  2217       550          move.l    (A7),D1
0800055A  504F       551          addq.w    #8,A7
0800055C  201F       552          move.l    (A7)+,D0
0800055E  D081       553          add.l     D1,D0
08000560  2212       554          move.l    (A2),D1
08000562  C3FC 0190  555          muls      #400,D1
08000566  41F9 0800  556          lea       _a.L,A0
0800056A  2F0E      
0800056C  D1C1       557          add.l     D1,A0
0800056E  2213       558          move.l    (A3),D1
08000570  E589       559          lsl.l     #2,D1
08000572  2F00       560          move.l    D0,-(A7)
08000574  2012       561          move.l    (A2),D0
08000576  C1FC 0190  562          muls      #400,D0
0800057A  43F9 0801  563          lea       _c.L,A1
0800057E  678E      
08000580  D3C0       564          add.l     D0,A1
08000582  201F       565          move.l    (A7)+,D0
08000584  2F00       566          move.l    D0,-(A7)
08000586  2014       567          move.l    (A4),D0
08000588  E588       568          lsl.l     #2,D0
0800058A  2F30 1800  569          move.l    0(A0,D1.L),-(A7)
0800058E  2F31 0800  570          move.l    0(A1,D0.L),-(A7)
08000592  4EB9 0800  571          jsr       LMUL
08000596  0BB8      
08000598  2217       572          move.l    (A7),D1
0800059A  504F       573          addq.w    #8,A7
0800059C  201F       574          move.l    (A7)+,D0
0800059E  D081       575          add.l     D1,D0
080005A0  2A80       576          move.l    D0,(A5)
                     577   ; sum = sum + b[i][k] * b[k][j] + a[i][k] * c[i][j];
080005A2  2015       578          move.l    (A5),D0
080005A4  2212       579          move.l    (A2),D1
080005A6  C3FC 0190  580          muls      #400,D1
080005AA  41F9 0800  581          lea       _b.L,A0
080005AE  CB4E      
080005B0  D1C1       582          add.l     D1,A0
080005B2  2213       583          move.l    (A3),D1
080005B4  E589       584          lsl.l     #2,D1
080005B6  2F00       585          move.l    D0,-(A7)
080005B8  2013       586          move.l    (A3),D0
080005BA  C1FC 0190  587          muls      #400,D0
080005BE  43F9 0800  588          lea       _b.L,A1
080005C2  CB4E      
080005C4  D3C0       589          add.l     D0,A1
080005C6  201F       590          move.l    (A7)+,D0
080005C8  2F00       591          move.l    D0,-(A7)
080005CA  2014       592          move.l    (A4),D0
080005CC  E588       593          lsl.l     #2,D0
080005CE  2F30 1800  594          move.l    0(A0,D1.L),-(A7)
080005D2  2F31 0800  595          move.l    0(A1,D0.L),-(A7)
080005D6  4EB9 0800  596          jsr       LMUL
080005DA  0BB8      
080005DC  2217       597          move.l    (A7),D1
080005DE  504F       598          addq.w    #8,A7
080005E0  201F       599          move.l    (A7)+,D0
080005E2  D081       600          add.l     D1,D0
080005E4  2212       601          move.l    (A2),D1
080005E6  C3FC 0190  602          muls      #400,D1
080005EA  41F9 0800  603          lea       _a.L,A0
080005EE  2F0E      
080005F0  D1C1       604          add.l     D1,A0
080005F2  2213       605          move.l    (A3),D1
080005F4  E589       606          lsl.l     #2,D1
080005F6  2F00       607          move.l    D0,-(A7)
080005F8  2012       608          move.l    (A2),D0
080005FA  C1FC 0190  609          muls      #400,D0
080005FE  43F9 0801  610          lea       _c.L,A1
08000602  678E      
08000604  D3C0       611          add.l     D0,A1
08000606  201F       612          move.l    (A7)+,D0
08000608  2F00       613          move.l    D0,-(A7)
0800060A  2014       614          move.l    (A4),D0
0800060C  E588       615          lsl.l     #2,D0
0800060E  2F30 1800  616          move.l    0(A0,D1.L),-(A7)
08000612  2F31 0800  617          move.l    0(A1,D0.L),-(A7)
08000616  4EB9 0800  618          jsr       LMUL
0800061A  0BB8      
0800061C  2217       619          move.l    (A7),D1
0800061E  504F       620          addq.w    #8,A7
08000620  201F       621          move.l    (A7)+,D0
08000622  D081       622          add.l     D1,D0
08000624  2A80       623          move.l    D0,(A5)
                     624   ; sum = sum + b[i][k] * b[k][j] + a[i][k] * c[i][j];
08000626  2015       625          move.l    (A5),D0
08000628  2212       626          move.l    (A2),D1
0800062A  C3FC 0190  627          muls      #400,D1
0800062E  41F9 0800  628          lea       _b.L,A0
08000632  CB4E      
08000634  D1C1       629          add.l     D1,A0
08000636  2213       630          move.l    (A3),D1
08000638  E589       631          lsl.l     #2,D1
0800063A  2F00       632          move.l    D0,-(A7)
0800063C  2013       633          move.l    (A3),D0
0800063E  C1FC 0190  634          muls      #400,D0
08000642  43F9 0800  635          lea       _b.L,A1
08000646  CB4E      
08000648  D3C0       636          add.l     D0,A1
0800064A  201F       637          move.l    (A7)+,D0
0800064C  2F00       638          move.l    D0,-(A7)
0800064E  2014       639          move.l    (A4),D0
08000650  E588       640          lsl.l     #2,D0
08000652  2F30 1800  641          move.l    0(A0,D1.L),-(A7)
08000656  2F31 0800  642          move.l    0(A1,D0.L),-(A7)
0800065A  4EB9 0800  643          jsr       LMUL
0800065E  0BB8      
08000660  2217       644          move.l    (A7),D1
08000662  504F       645          addq.w    #8,A7
08000664  201F       646          move.l    (A7)+,D0
08000666  D081       647          add.l     D1,D0
08000668  2212       648          move.l    (A2),D1
0800066A  C3FC 0190  649          muls      #400,D1
0800066E  41F9 0800  650          lea       _a.L,A0
08000672  2F0E      
08000674  D1C1       651          add.l     D1,A0
08000676  2213       652          move.l    (A3),D1
08000678  E589       653          lsl.l     #2,D1
0800067A  2F00       654          move.l    D0,-(A7)
0800067C  2012       655          move.l    (A2),D0
0800067E  C1FC 0190  656          muls      #400,D0
08000682  43F9 0801  657          lea       _c.L,A1
08000686  678E      
08000688  D3C0       658          add.l     D0,A1
0800068A  201F       659          move.l    (A7)+,D0
0800068C  2F00       660          move.l    D0,-(A7)
0800068E  2014       661          move.l    (A4),D0
08000690  E588       662          lsl.l     #2,D0
08000692  2F30 1800  663          move.l    0(A0,D1.L),-(A7)
08000696  2F31 0800  664          move.l    0(A1,D0.L),-(A7)
0800069A  4EB9 0800  665          jsr       LMUL
0800069E  0BB8      
080006A0  2217       666          move.l    (A7),D1
080006A2  504F       667          addq.w    #8,A7
080006A4  201F       668          move.l    (A7)+,D0
080006A6  D081       669          add.l     D1,D0
080006A8  2A80       670          move.l    D0,(A5)
                     671   ; sum = sum + b[i][k] * b[k][j] + a[i][k] * c[i][j];
080006AA  2015       672          move.l    (A5),D0
080006AC  2212       673          move.l    (A2),D1
080006AE  C3FC 0190  674          muls      #400,D1
080006B2  41F9 0800  675          lea       _b.L,A0
080006B6  CB4E      
080006B8  D1C1       676          add.l     D1,A0
080006BA  2213       677          move.l    (A3),D1
080006BC  E589       678          lsl.l     #2,D1
080006BE  2F00       679          move.l    D0,-(A7)
080006C0  2013       680          move.l    (A3),D0
080006C2  C1FC 0190  681          muls      #400,D0
080006C6  43F9 0800  682          lea       _b.L,A1
080006CA  CB4E      
080006CC  D3C0       683          add.l     D0,A1
080006CE  201F       684          move.l    (A7)+,D0
080006D0  2F00       685          move.l    D0,-(A7)
080006D2  2014       686          move.l    (A4),D0
080006D4  E588       687          lsl.l     #2,D0
080006D6  2F30 1800  688          move.l    0(A0,D1.L),-(A7)
080006DA  2F31 0800  689          move.l    0(A1,D0.L),-(A7)
080006DE  4EB9 0800  690          jsr       LMUL
080006E2  0BB8      
080006E4  2217       691          move.l    (A7),D1
080006E6  504F       692          addq.w    #8,A7
080006E8  201F       693          move.l    (A7)+,D0
080006EA  D081       694          add.l     D1,D0
080006EC  2212       695          move.l    (A2),D1
080006EE  C3FC 0190  696          muls      #400,D1
080006F2  41F9 0800  697          lea       _a.L,A0
080006F6  2F0E      
080006F8  D1C1       698          add.l     D1,A0
080006FA  2213       699          move.l    (A3),D1
080006FC  E589       700          lsl.l     #2,D1
080006FE  2F00       701          move.l    D0,-(A7)
08000700  2012       702          move.l    (A2),D0
08000702  C1FC 0190  703          muls      #400,D0
08000706  43F9 0801  704          lea       _c.L,A1
0800070A  678E      
0800070C  D3C0       705          add.l     D0,A1
0800070E  201F       706          move.l    (A7)+,D0
08000710  2F00       707          move.l    D0,-(A7)
08000712  2014       708          move.l    (A4),D0
08000714  E588       709          lsl.l     #2,D0
08000716  2F30 1800  710          move.l    0(A0,D1.L),-(A7)
0800071A  2F31 0800  711          move.l    0(A1,D0.L),-(A7)
0800071E  4EB9 0800  712          jsr       LMUL
08000722  0BB8      
08000724  2217       713          move.l    (A7),D1
08000726  504F       714          addq.w    #8,A7
08000728  201F       715          move.l    (A7)+,D0
0800072A  D081       716          add.l     D1,D0
0800072C  2A80       717          move.l    D0,(A5)
                     718   ; sum = sum + b[i][k] * b[k][j] + a[i][k] * c[i][j];
0800072E  2015       719          move.l    (A5),D0
08000730  2212       720          move.l    (A2),D1
08000732  C3FC 0190  721          muls      #400,D1
08000736  41F9 0800  722          lea       _b.L,A0
0800073A  CB4E      
0800073C  D1C1       723          add.l     D1,A0
0800073E  2213       724          move.l    (A3),D1
08000740  E589       725          lsl.l     #2,D1
08000742  2F00       726          move.l    D0,-(A7)
08000744  2013       727          move.l    (A3),D0
08000746  C1FC 0190  728          muls      #400,D0
0800074A  43F9 0800  729          lea       _b.L,A1
0800074E  CB4E      
08000750  D3C0       730          add.l     D0,A1
08000752  201F       731          move.l    (A7)+,D0
08000754  2F00       732          move.l    D0,-(A7)
08000756  2014       733          move.l    (A4),D0
08000758  E588       734          lsl.l     #2,D0
0800075A  2F30 1800  735          move.l    0(A0,D1.L),-(A7)
0800075E  2F31 0800  736          move.l    0(A1,D0.L),-(A7)
08000762  4EB9 0800  737          jsr       LMUL
08000766  0BB8      
08000768  2217       738          move.l    (A7),D1
0800076A  504F       739          addq.w    #8,A7
0800076C  201F       740          move.l    (A7)+,D0
0800076E  D081       741          add.l     D1,D0
08000770  2212       742          move.l    (A2),D1
08000772  C3FC 0190  743          muls      #400,D1
08000776  41F9 0800  744          lea       _a.L,A0
0800077A  2F0E      
0800077C  D1C1       745          add.l     D1,A0
0800077E  2213       746          move.l    (A3),D1
08000780  E589       747          lsl.l     #2,D1
08000782  2F00       748          move.l    D0,-(A7)
08000784  2012       749          move.l    (A2),D0
08000786  C1FC 0190  750          muls      #400,D0
0800078A  43F9 0801  751          lea       _c.L,A1
0800078E  678E      
08000790  D3C0       752          add.l     D0,A1
08000792  201F       753          move.l    (A7)+,D0
08000794  2F00       754          move.l    D0,-(A7)
08000796  2014       755          move.l    (A4),D0
08000798  E588       756          lsl.l     #2,D0
0800079A  2F30 1800  757          move.l    0(A0,D1.L),-(A7)
0800079E  2F31 0800  758          move.l    0(A1,D0.L),-(A7)
080007A2  4EB9 0800  759          jsr       LMUL
080007A6  0BB8      
080007A8  2217       760          move.l    (A7),D1
080007AA  504F       761          addq.w    #8,A7
080007AC  201F       762          move.l    (A7)+,D0
080007AE  D081       763          add.l     D1,D0
080007B0  2A80       764          move.l    D0,(A5)
                     765   ; sum = sum + b[i][k] * b[k][j] + a[i][k] * c[i][j];
080007B2  2015       766          move.l    (A5),D0
080007B4  2212       767          move.l    (A2),D1
080007B6  C3FC 0190  768          muls      #400,D1
080007BA  41F9 0800  769          lea       _b.L,A0
080007BE  CB4E      
080007C0  D1C1       770          add.l     D1,A0
080007C2  2213       771          move.l    (A3),D1
080007C4  E589       772          lsl.l     #2,D1
080007C6  2F00       773          move.l    D0,-(A7)
080007C8  2013       774          move.l    (A3),D0
080007CA  C1FC 0190  775          muls      #400,D0
080007CE  43F9 0800  776          lea       _b.L,A1
080007D2  CB4E      
080007D4  D3C0       777          add.l     D0,A1
080007D6  201F       778          move.l    (A7)+,D0
080007D8  2F00       779          move.l    D0,-(A7)
080007DA  2014       780          move.l    (A4),D0
080007DC  E588       781          lsl.l     #2,D0
080007DE  2F30 1800  782          move.l    0(A0,D1.L),-(A7)
080007E2  2F31 0800  783          move.l    0(A1,D0.L),-(A7)
080007E6  4EB9 0800  784          jsr       LMUL
080007EA  0BB8      
080007EC  2217       785          move.l    (A7),D1
080007EE  504F       786          addq.w    #8,A7
080007F0  201F       787          move.l    (A7)+,D0
080007F2  D081       788          add.l     D1,D0
080007F4  2212       789          move.l    (A2),D1
080007F6  C3FC 0190  790          muls      #400,D1
080007FA  41F9 0800  791          lea       _a.L,A0
080007FE  2F0E      
08000800  D1C1       792          add.l     D1,A0
08000802  2213       793          move.l    (A3),D1
08000804  E589       794          lsl.l     #2,D1
08000806  2F00       795          move.l    D0,-(A7)
08000808  2012       796          move.l    (A2),D0
0800080A  C1FC 0190  797          muls      #400,D0
0800080E  43F9 0801  798          lea       _c.L,A1
08000812  678E      
08000814  D3C0       799          add.l     D0,A1
08000816  201F       800          move.l    (A7)+,D0
08000818  2F00       801          move.l    D0,-(A7)
0800081A  2014       802          move.l    (A4),D0
0800081C  E588       803          lsl.l     #2,D0
0800081E  2F30 1800  804          move.l    0(A0,D1.L),-(A7)
08000822  2F31 0800  805          move.l    0(A1,D0.L),-(A7)
08000826  4EB9 0800  806          jsr       LMUL
0800082A  0BB8      
0800082C  2217       807          move.l    (A7),D1
0800082E  504F       808          addq.w    #8,A7
08000830  201F       809          move.l    (A7)+,D0
08000832  D081       810          add.l     D1,D0
08000834  2A80       811          move.l    D0,(A5)
                     812   ; sum = sum + b[i][k] * b[k][j] + a[i][k] * c[i][j];
08000836  2015       813          move.l    (A5),D0
08000838  2212       814          move.l    (A2),D1
0800083A  C3FC 0190  815          muls      #400,D1
0800083E  41F9 0800  816          lea       _b.L,A0
08000842  CB4E      
08000844  D1C1       817          add.l     D1,A0
08000846  2213       818          move.l    (A3),D1
08000848  E589       819          lsl.l     #2,D1
0800084A  2F00       820          move.l    D0,-(A7)
0800084C  2013       821          move.l    (A3),D0
0800084E  C1FC 0190  822          muls      #400,D0
08000852  43F9 0800  823          lea       _b.L,A1
08000856  CB4E      
08000858  D3C0       824          add.l     D0,A1
0800085A  201F       825          move.l    (A7)+,D0
0800085C  2F00       826          move.l    D0,-(A7)
0800085E  2014       827          move.l    (A4),D0
08000860  E588       828          lsl.l     #2,D0
08000862  2F30 1800  829          move.l    0(A0,D1.L),-(A7)
08000866  2F31 0800  830          move.l    0(A1,D0.L),-(A7)
0800086A  4EB9 0800  831          jsr       LMUL
0800086E  0BB8      
08000870  2217       832          move.l    (A7),D1
08000872  504F       833          addq.w    #8,A7
08000874  201F       834          move.l    (A7)+,D0
08000876  D081       835          add.l     D1,D0
08000878  2212       836          move.l    (A2),D1
0800087A  C3FC 0190  837          muls      #400,D1
0800087E  41F9 0800  838          lea       _a.L,A0
08000882  2F0E      
08000884  D1C1       839          add.l     D1,A0
08000886  2213       840          move.l    (A3),D1
08000888  E589       841          lsl.l     #2,D1
0800088A  2F00       842          move.l    D0,-(A7)
0800088C  2012       843          move.l    (A2),D0
0800088E  C1FC 0190  844          muls      #400,D0
08000892  43F9 0801  845          lea       _c.L,A1
08000896  678E      
08000898  D3C0       846          add.l     D0,A1
0800089A  201F       847          move.l    (A7)+,D0
0800089C  2F00       848          move.l    D0,-(A7)
0800089E  2014       849          move.l    (A4),D0
080008A0  E588       850          lsl.l     #2,D0
080008A2  2F30 1800  851          move.l    0(A0,D1.L),-(A7)
080008A6  2F31 0800  852          move.l    0(A1,D0.L),-(A7)
080008AA  4EB9 0800  853          jsr       LMUL
080008AE  0BB8      
080008B0  2217       854          move.l    (A7),D1
080008B2  504F       855          addq.w    #8,A7
080008B4  201F       856          move.l    (A7)+,D0
080008B6  D081       857          add.l     D1,D0
080008B8  2A80       858          move.l    D0,(A5)
                     859   ; sum = sum + b[i][k] * b[k][j] + a[i][k] * c[i][j];
080008BA  2015       860          move.l    (A5),D0
080008BC  2212       861          move.l    (A2),D1
080008BE  C3FC 0190  862          muls      #400,D1
080008C2  41F9 0800  863          lea       _b.L,A0
080008C6  CB4E      
080008C8  D1C1       864          add.l     D1,A0
080008CA  2213       865          move.l    (A3),D1
080008CC  E589       866          lsl.l     #2,D1
080008CE  2F00       867          move.l    D0,-(A7)
080008D0  2013       868          move.l    (A3),D0
080008D2  C1FC 0190  869          muls      #400,D0
080008D6  43F9 0800  870          lea       _b.L,A1
080008DA  CB4E      
080008DC  D3C0       871          add.l     D0,A1
080008DE  201F       872          move.l    (A7)+,D0
080008E0  2F00       873          move.l    D0,-(A7)
080008E2  2014       874          move.l    (A4),D0
080008E4  E588       875          lsl.l     #2,D0
080008E6  2F30 1800  876          move.l    0(A0,D1.L),-(A7)
080008EA  2F31 0800  877          move.l    0(A1,D0.L),-(A7)
080008EE  4EB9 0800  878          jsr       LMUL
080008F2  0BB8      
080008F4  2217       879          move.l    (A7),D1
080008F6  504F       880          addq.w    #8,A7
080008F8  201F       881          move.l    (A7)+,D0
080008FA  D081       882          add.l     D1,D0
080008FC  2212       883          move.l    (A2),D1
080008FE  C3FC 0190  884          muls      #400,D1
08000902  41F9 0800  885          lea       _a.L,A0
08000906  2F0E      
08000908  D1C1       886          add.l     D1,A0
0800090A  2213       887          move.l    (A3),D1
0800090C  E589       888          lsl.l     #2,D1
0800090E  2F00       889          move.l    D0,-(A7)
08000910  2012       890          move.l    (A2),D0
08000912  C1FC 0190  891          muls      #400,D0
08000916  43F9 0801  892          lea       _c.L,A1
0800091A  678E      
0800091C  D3C0       893          add.l     D0,A1
0800091E  201F       894          move.l    (A7)+,D0
08000920  2F00       895          move.l    D0,-(A7)
08000922  2014       896          move.l    (A4),D0
08000924  E588       897          lsl.l     #2,D0
08000926  2F30 1800  898          move.l    0(A0,D1.L),-(A7)
0800092A  2F31 0800  899          move.l    0(A1,D0.L),-(A7)
0800092E  4EB9 0800  900          jsr       LMUL
08000932  0BB8      
08000934  2217       901          move.l    (A7),D1
08000936  504F       902          addq.w    #8,A7
08000938  201F       903          move.l    (A7)+,D0
0800093A  D081       904          add.l     D1,D0
0800093C  2A80       905          move.l    D0,(A5)
                     906   ; sum = sum + b[i][k] * b[k][j] + a[i][k] * c[i][j];
0800093E  2015       907          move.l    (A5),D0
08000940  2212       908          move.l    (A2),D1
08000942  C3FC 0190  909          muls      #400,D1
08000946  41F9 0800  910          lea       _b.L,A0
0800094A  CB4E      
0800094C  D1C1       911          add.l     D1,A0
0800094E  2213       912          move.l    (A3),D1
08000950  E589       913          lsl.l     #2,D1
08000952  2F00       914          move.l    D0,-(A7)
08000954  2013       915          move.l    (A3),D0
08000956  C1FC 0190  916          muls      #400,D0
0800095A  43F9 0800  917          lea       _b.L,A1
0800095E  CB4E      
08000960  D3C0       918          add.l     D0,A1
08000962  201F       919          move.l    (A7)+,D0
08000964  2F00       920          move.l    D0,-(A7)
08000966  2014       921          move.l    (A4),D0
08000968  E588       922          lsl.l     #2,D0
0800096A  2F30 1800  923          move.l    0(A0,D1.L),-(A7)
0800096E  2F31 0800  924          move.l    0(A1,D0.L),-(A7)
08000972  4EB9 0800  925          jsr       LMUL
08000976  0BB8      
08000978  2217       926          move.l    (A7),D1
0800097A  504F       927          addq.w    #8,A7
0800097C  201F       928          move.l    (A7)+,D0
0800097E  D081       929          add.l     D1,D0
08000980  2212       930          move.l    (A2),D1
08000982  C3FC 0190  931          muls      #400,D1
08000986  41F9 0800  932          lea       _a.L,A0
0800098A  2F0E      
0800098C  D1C1       933          add.l     D1,A0
0800098E  2213       934          move.l    (A3),D1
08000990  E589       935          lsl.l     #2,D1
08000992  2F00       936          move.l    D0,-(A7)
08000994  2012       937          move.l    (A2),D0
08000996  C1FC 0190  938          muls      #400,D0
0800099A  43F9 0801  939          lea       _c.L,A1
0800099E  678E      
080009A0  D3C0       940          add.l     D0,A1
080009A2  201F       941          move.l    (A7)+,D0
080009A4  2F00       942          move.l    D0,-(A7)
080009A6  2014       943          move.l    (A4),D0
080009A8  E588       944          lsl.l     #2,D0
080009AA  2F30 1800  945          move.l    0(A0,D1.L),-(A7)
080009AE  2F31 0800  946          move.l    0(A1,D0.L),-(A7)
080009B2  4EB9 0800  947          jsr       LMUL
080009B6  0BB8      
080009B8  2217       948          move.l    (A7),D1
080009BA  504F       949          addq.w    #8,A7
080009BC  201F       950          move.l    (A7)+,D0
080009BE  D081       951          add.l     D1,D0
080009C0  2A80       952          move.l    D0,(A5)
                     953   ; sum = sum + b[i][k] * b[k][j] + a[i][k] * c[i][j];
080009C2  2015       954          move.l    (A5),D0
080009C4  2212       955          move.l    (A2),D1
080009C6  C3FC 0190  956          muls      #400,D1
080009CA  41F9 0800  957          lea       _b.L,A0
080009CE  CB4E      
080009D0  D1C1       958          add.l     D1,A0
080009D2  2213       959          move.l    (A3),D1
080009D4  E589       960          lsl.l     #2,D1
080009D6  2F00       961          move.l    D0,-(A7)
080009D8  2013       962          move.l    (A3),D0
080009DA  C1FC 0190  963          muls      #400,D0
080009DE  43F9 0800  964          lea       _b.L,A1
080009E2  CB4E      
080009E4  D3C0       965          add.l     D0,A1
080009E6  201F       966          move.l    (A7)+,D0
080009E8  2F00       967          move.l    D0,-(A7)
080009EA  2014       968          move.l    (A4),D0
080009EC  E588       969          lsl.l     #2,D0
080009EE  2F30 1800  970          move.l    0(A0,D1.L),-(A7)
080009F2  2F31 0800  971          move.l    0(A1,D0.L),-(A7)
080009F6  4EB9 0800  972          jsr       LMUL
080009FA  0BB8      
080009FC  2217       973          move.l    (A7),D1
080009FE  504F       974          addq.w    #8,A7
08000A00  201F       975          move.l    (A7)+,D0
08000A02  D081       976          add.l     D1,D0
08000A04  2212       977          move.l    (A2),D1
08000A06  C3FC 0190  978          muls      #400,D1
08000A0A  41F9 0800  979          lea       _a.L,A0
08000A0E  2F0E      
08000A10  D1C1       980          add.l     D1,A0
08000A12  2213       981          move.l    (A3),D1
08000A14  E589       982          lsl.l     #2,D1
08000A16  2F00       983          move.l    D0,-(A7)
08000A18  2012       984          move.l    (A2),D0
08000A1A  C1FC 0190  985          muls      #400,D0
08000A1E  43F9 0801  986          lea       _c.L,A1
08000A22  678E      
08000A24  D3C0       987          add.l     D0,A1
08000A26  201F       988          move.l    (A7)+,D0
08000A28  2F00       989          move.l    D0,-(A7)
08000A2A  2014       990          move.l    (A4),D0
08000A2C  E588       991          lsl.l     #2,D0
08000A2E  2F30 1800  992          move.l    0(A0,D1.L),-(A7)
08000A32  2F31 0800  993          move.l    0(A1,D0.L),-(A7)
08000A36  4EB9 0800  994          jsr       LMUL
08000A3A  0BB8      
08000A3C  2217       995          move.l    (A7),D1
08000A3E  504F       996          addq.w    #8,A7
08000A40  201F       997          move.l    (A7)+,D0
08000A42  D081       998          add.l     D1,D0
08000A44  2A80       999          move.l    D0,(A5)
                    1000   ; sum = sum + b[i][k] * b[k][j] + a[i][k] * c[i][j];
08000A46  2015      1001          move.l    (A5),D0
08000A48  2212      1002          move.l    (A2),D1
08000A4A  C3FC 0190 1003          muls      #400,D1
08000A4E  41F9 0800 1004          lea       _b.L,A0
08000A52  CB4E      
08000A54  D1C1      1005          add.l     D1,A0
08000A56  2213      1006          move.l    (A3),D1
08000A58  E589      1007          lsl.l     #2,D1
08000A5A  2F00      1008          move.l    D0,-(A7)
08000A5C  2013      1009          move.l    (A3),D0
08000A5E  C1FC 0190 1010          muls      #400,D0
08000A62  43F9 0800 1011          lea       _b.L,A1
08000A66  CB4E      
08000A68  D3C0      1012          add.l     D0,A1
08000A6A  201F      1013          move.l    (A7)+,D0
08000A6C  2F00      1014          move.l    D0,-(A7)
08000A6E  2014      1015          move.l    (A4),D0
08000A70  E588      1016          lsl.l     #2,D0
08000A72  2F30 1800 1017          move.l    0(A0,D1.L),-(A7)
08000A76  2F31 0800 1018          move.l    0(A1,D0.L),-(A7)
08000A7A  4EB9 0800 1019          jsr       LMUL
08000A7E  0BB8      
08000A80  2217      1020          move.l    (A7),D1
08000A82  504F      1021          addq.w    #8,A7
08000A84  201F      1022          move.l    (A7)+,D0
08000A86  D081      1023          add.l     D1,D0
08000A88  2212      1024          move.l    (A2),D1
08000A8A  C3FC 0190 1025          muls      #400,D1
08000A8E  41F9 0800 1026          lea       _a.L,A0
08000A92  2F0E      
08000A94  D1C1      1027          add.l     D1,A0
08000A96  2213      1028          move.l    (A3),D1
08000A98  E589      1029          lsl.l     #2,D1
08000A9A  2F00      1030          move.l    D0,-(A7)
08000A9C  2012      1031          move.l    (A2),D0
08000A9E  C1FC 0190 1032          muls      #400,D0
08000AA2  43F9 0801 1033          lea       _c.L,A1
08000AA6  678E      
08000AA8  D3C0      1034          add.l     D0,A1
08000AAA  201F      1035          move.l    (A7)+,D0
08000AAC  2F00      1036          move.l    D0,-(A7)
08000AAE  2014      1037          move.l    (A4),D0
08000AB0  E588      1038          lsl.l     #2,D0
08000AB2  2F30 1800 1039          move.l    0(A0,D1.L),-(A7)
08000AB6  2F31 0800 1040          move.l    0(A1,D0.L),-(A7)
08000ABA  4EB9 0800 1041          jsr       LMUL
08000ABE  0BB8      
08000AC0  2217      1042          move.l    (A7),D1
08000AC2  504F      1043          addq.w    #8,A7
08000AC4  201F      1044          move.l    (A7)+,D0
08000AC6  D081      1045          add.l     D1,D0
08000AC8  2A80      1046          move.l    D0,(A5)
                    1047   ; sum = sum + b[i][k] * b[k][j] + a[i][k] * c[i][j];
08000ACA  2015      1048          move.l    (A5),D0
08000ACC  2212      1049          move.l    (A2),D1
08000ACE  C3FC 0190 1050          muls      #400,D1
08000AD2  41F9 0800 1051          lea       _b.L,A0
08000AD6  CB4E      
08000AD8  D1C1      1052          add.l     D1,A0
08000ADA  2213      1053          move.l    (A3),D1
08000ADC  E589      1054          lsl.l     #2,D1
08000ADE  2F00      1055          move.l    D0,-(A7)
08000AE0  2013      1056          move.l    (A3),D0
08000AE2  C1FC 0190 1057          muls      #400,D0
08000AE6  43F9 0800 1058          lea       _b.L,A1
08000AEA  CB4E      
08000AEC  D3C0      1059          add.l     D0,A1
08000AEE  201F      1060          move.l    (A7)+,D0
08000AF0  2F00      1061          move.l    D0,-(A7)
08000AF2  2014      1062          move.l    (A4),D0
08000AF4  E588      1063          lsl.l     #2,D0
08000AF6  2F30 1800 1064          move.l    0(A0,D1.L),-(A7)
08000AFA  2F31 0800 1065          move.l    0(A1,D0.L),-(A7)
08000AFE  4EB9 0800 1066          jsr       LMUL
08000B02  0BB8      
08000B04  2217      1067          move.l    (A7),D1
08000B06  504F      1068          addq.w    #8,A7
08000B08  201F      1069          move.l    (A7)+,D0
08000B0A  D081      1070          add.l     D1,D0
08000B0C  2212      1071          move.l    (A2),D1
08000B0E  C3FC 0190 1072          muls      #400,D1
08000B12  41F9 0800 1073          lea       _a.L,A0
08000B16  2F0E      
08000B18  D1C1      1074          add.l     D1,A0
08000B1A  2213      1075          move.l    (A3),D1
08000B1C  E589      1076          lsl.l     #2,D1
08000B1E  2F00      1077          move.l    D0,-(A7)
08000B20  2012      1078          move.l    (A2),D0
08000B22  C1FC 0190 1079          muls      #400,D0
08000B26  43F9 0801 1080          lea       _c.L,A1
08000B2A  678E      
08000B2C  D3C0      1081          add.l     D0,A1
08000B2E  201F      1082          move.l    (A7)+,D0
08000B30  2F00      1083          move.l    D0,-(A7)
08000B32  2014      1084          move.l    (A4),D0
08000B34  E588      1085          lsl.l     #2,D0
08000B36  2F30 1800 1086          move.l    0(A0,D1.L),-(A7)
08000B3A  2F31 0800 1087          move.l    0(A1,D0.L),-(A7)
08000B3E  4EB9 0800 1088          jsr       LMUL
08000B42  0BB8      
08000B44  2217      1089          move.l    (A7),D1
08000B46  504F      1090          addq.w    #8,A7
08000B48  201F      1091          move.l    (A7)+,D0
08000B4A  D081      1092          add.l     D1,D0
08000B4C  2A80      1093          move.l    D0,(A5)
08000B4E  5293      1094          addq.l    #1,(A3)
08000B50  6000 F5A0 1095          bra       SpeedTest_7
                    1096   SpeedTest_9:
                    1097   ; }
                    1098   ; c[i][j] = sum ;
08000B54  2012      1099          move.l    (A2),D0
08000B56  C1FC 0190 1100          muls      #400,D0
08000B5A  41F9 0801 1101          lea       _c.L,A0
08000B5E  678E      
08000B60  D1C0      1102          add.l     D0,A0
08000B62  2014      1103          move.l    (A4),D0
08000B64  E588      1104          lsl.l     #2,D0
08000B66  2195 0800 1105          move.l    (A5),0(A0,D0.L)
08000B6A  5294      1106          addq.l    #1,(A4)
08000B6C  6000 F574 1107          bra       SpeedTest_4
                    1108   SpeedTest_6:
08000B70  5292      1109          addq.l    #1,(A2)
08000B72  6000 F550 1110          bra       SpeedTest_1
                    1111   SpeedTest_3:
                    1112   ; }
                    1113   ; }
                    1114   ; printf("\n\nDone.....");
08000B76  4879 0800 1115          pea       @speedt~1_3.L
08000B7A  2D9E      
08000B7C  4EB9 0800 1116          jsr       _printf
08000B80  1718      
08000B82  584F      1117          addq.w    #4,A7
08000B84  4CDF 3C00 1118          movem.l   (A7)+,A2/A3/A4/A5
08000B88  4E75      1119          rts
                    1120   ; }
                    1121   ; /******************************************************************************************************************************
                    1122   ; * Start of user program
                    1123   ; ******************************************************************************************************************************/
                    1124   ; void main()
                    1125   ; {
                    1126   _main:
                    1127   ; scanflush() ;                       // flush any text that may have been typed ahead
08000B8A  4EB9 0800 1128          jsr       _scanflush
08000B8E  0ED2      
                    1129   ; printf("\r\nHello CPEN 412 TA\r\nWelcome to Lab3!!!\r\n");
08000B90  4879 0800 1130          pea       @speedt~1_4.L
08000B94  2DAA      
08000B96  4EB9 0800 1131          jsr       _printf
08000B9A  1718      
08000B9C  584F      1132          addq.w    #4,A7
                    1133   ; SpeedTest();
08000B9E  4EB9 0800 1134          jsr       _SpeedTest
08000BA2  0098      
                    1135   ; while(1);
                    1136   main_1:
08000BA4  60FE      1137          bra       main_1
                    1138   ; // programs should NOT exit as there is nothing to Exit TO !!!!!!
                    1139   ; // There is no OS - just press the reset button to end program and call debug
                    1140   ; }
                    1141   ULMUL:
08000BA6  4E56 0000 1142          link    A6,#0
08000BAA  48E7 C000 1143          movem.l D0/D1,-(A7)
08000BAE  222E 0008 1144          move.l  8(A6),D1
08000BB2  202E 000C 1145          move.l  12(A6),D0
08000BB6  602C      1146          bra.s   lmul_3
                    1147   LMUL:
08000BB8  4E56 0000 1148          link    A6,#0
08000BBC  48E7 C000 1149          movem.l D0/D1,-(A7)
08000BC0  222E 0008 1150          move.l  8(A6),D1
08000BC4  202E 000C 1151          move.l  12(A6),D0
08000BC8  4A80      1152          tst.l   D0
08000BCA  6A0A      1153          bpl.s   lmul_1
08000BCC  4480      1154          neg.l   D0
08000BCE  4A81      1155          tst.l   D1
08000BD0  6A0A      1156          bpl.s   lmul_2
08000BD2  4481      1157          neg.l   D1
08000BD4  600E      1158          bra.s   lmul_3
                    1159   lmul_1:
08000BD6  4A81      1160          tst.l   D1
08000BD8  6A0A      1161          bpl.s   lmul_3
08000BDA  4481      1162          neg.l   D1
                    1163   lmul_2:
08000BDC  6114      1164          bsr.s   domul
08000BDE  4481      1165          neg.l   D1
08000BE0  4080      1166          negx.l  D0
08000BE2  6002      1167          bra.s   lmul_4
                    1168   lmul_3:
08000BE4  610C      1169          bsr.s   domul
                    1170   lmul_4:
08000BE6  2D41 0008 1171          move.l  D1,8(A6)
08000BEA  4CDF 0003 1172          movem.l (A7)+,D0/D1
08000BEE  4E5E      1173          unlk    A6
08000BF0  4E75      1174          rts
                    1175   domul:
08000BF2  0C81 0000 1176          cmpi.l  #$FFFF,D1
08000BF6  FFFF      
08000BF8  620C      1177          bhi.s   domul_1
08000BFA  0C80 0000 1178          cmpi.l  #$FFFF,D0
08000BFE  FFFF      
08000C00  620E      1179          bhi.s   domul_2
08000C02  C2C0      1180          mulu    D0,D1
08000C04  4E75      1181          rts
                    1182   domul_1:
08000C06  0C80 0000 1183          cmpi.l  #$FFFF,D0
08000C0A  FFFF      
08000C0C  6218      1184          bhi.s   domul_4
08000C0E  6002      1185          bra.s   domul_3
                    1186   domul_2
08000C10  C141      1187          exg     D0,D1
                    1188   domul_3:
08000C12  2F02      1189          move.l  D2,-(A7)
08000C14  2401      1190          move.l  D1,D2
08000C16  4842      1191          swap    D2
08000C18  C2C0      1192          mulu    D0,D1
08000C1A  C4C0      1193          mulu    D0,D2
08000C1C  4842      1194          swap    D2
08000C1E  4242      1195          clr.w   D2
08000C20  D282      1196          add.l   D2,D1
08000C22  241F      1197          move.l  (A7)+,D2
08000C24  4E75      1198          rts
                    1199   domul_4:
08000C26  48E7 3000 1200          movem.l D2/D3,-(A7)
08000C2A  2401      1201          move.l  D1,D2
08000C2C  2601      1202          move.l  D1,D3
08000C2E  C2C0      1203          mulu    D0,D1
08000C30  4842      1204          swap    D2
08000C32  C4C0      1205          mulu    D0,D2
08000C34  4840      1206          swap    D0
08000C36  C6C0      1207          mulu    D0,D3
08000C38  D483      1208          add.l   D3,D2
08000C3A  4842      1209          swap    D2
08000C3C  4242      1210          clr.w   D2
08000C3E  D282      1211          add.l   D2,D1
08000C40  4CDF 000C 1212          movem.l (A7)+,D2/D3
08000C44  4E75      1213          rts
                    1214   @vsscanf_scanread:
08000C46  4E56 FFFC 1215          link      A6,#-4
08000C4A  48E7 0020 1216          movem.l   A2,-(A7)
08000C4E  45F9 0800 1217          lea       @vsscanf_bufx,A2
08000C52  2DE0      
08000C54  4AAE 0008 1218          tst.l     8(A6)
08000C58  6722      1219          beq.s     @vsscanf_scanread_1
08000C5A  206E 0008 1220          move.l    8(A6),A0
08000C5E  58AE 0008 1221          addq.l    #4,8(A6)
08000C62  2050      1222          move.l    (A0),A0
08000C64  1010      1223          move.b    (A0),D0
08000C66  4880      1224          ext.w     D0
08000C68  48C0      1225          ext.l     D0
08000C6A  2D40 FFFC 1226          move.l    D0,-4(A6)
08000C6E  6706      1227          beq.s     @vsscanf_scanread_3
08000C70  202E FFFC 1228          move.l    -4(A6),D0
08000C74  6002      1229          bra.s     @vsscanf_scanread_4
                    1230   @vsscanf_scanread_3:
08000C76  70FF      1231          moveq     #-1,D0
                    1232   @vsscanf_scanread_4:
08000C78  6000 0032 1233          bra       @vsscanf_scanread_5
                    1234   @vsscanf_scanread_1:
08000C7C  2052      1235          move.l    (A2),A0
08000C7E  1010      1236          move.b    (A0),D0
08000C80  6620      1237          bne.s     @vsscanf_scanread_6
08000C82  4879 0802 1238          pea       @vsscanf_buf
08000C86  03DE      
08000C88  6100 0EC8 1239          bsr       _gets
08000C8C  584F      1240          addq.w    #4,A7
08000C8E  2480      1241          move.l    D0,(A2)
08000C90  4879 0800 1242          pea       @vsscanf_1
08000C94  2DE4      
08000C96  4879 0802 1243          pea       @vsscanf_buf
08000C9A  03DE      
08000C9C  6100 0F54 1244          bsr       _strcat
08000CA0  504F      1245          addq.w    #8,A7
                    1246   @vsscanf_scanread_6:
08000CA2  2052      1247          move.l    (A2),A0
08000CA4  5292      1248          addq.l    #1,(A2)
08000CA6  1010      1249          move.b    (A0),D0
08000CA8  4880      1250          ext.w     D0
08000CAA  48C0      1251          ext.l     D0
                    1252   @vsscanf_scanread_5:
08000CAC  4CDF 0400 1253          movem.l   (A7)+,A2
08000CB0  4E5E      1254          unlk      A6
08000CB2  4E75      1255          rts
                    1256   @vsscanf_scanputback:
08000CB4  4E56 0000 1257          link      A6,#0
08000CB8  48E7 3000 1258          movem.l   D2/D3,-(A7)
08000CBC  242E 000C 1259          move.l    12(A6),D2
08000CC0  262E 0008 1260          move.l    8(A6),D3
08000CC4  6718      1261          beq.s     @vsscanf_scanputback_1
08000CC6  0C82 FFFF 1262          cmp.l     #-1,D2
08000CCA  FFFF      
08000CCC  670A      1263          beq.s     @vsscanf_scanputback_3
08000CCE  5983      1264          subq.l    #4,D3
08000CD0  2043      1265          move.l    D3,A0
08000CD2  2050      1266          move.l    (A0),A0
08000CD4  1082      1267          move.b    D2,(A0)
08000CD6  6004      1268          bra.s     @vsscanf_scanputback_4
                    1269   @vsscanf_scanputback_3:
08000CD8  2043      1270          move.l    D3,A0
08000CDA  5390      1271          subq.l    #1,(A0)
                    1272   @vsscanf_scanputback_4:
08000CDC  602E      1273          bra.s     @vsscanf_scanputback_6
                    1274   @vsscanf_scanputback_1:
08000CDE  41F9 0802 1275          lea       @vsscanf_buf,A0
08000CE2  03DE      
08000CE4  2008      1276          move.l    A0,D0
08000CE6  B0B9 0800 1277          cmp.l     @vsscanf_bufx,D0
08000CEA  2DE0      
08000CEC  6610      1278          bne.s     @vsscanf_scanputback_5
08000CEE  4239 0802 1279          clr.b     @vsscanf_buf
08000CF2  03DE      
08000CF4  2F02      1280          move.l    D2,-(A7)
08000CF6  6100 0F3C 1281          bsr       _ungetch
08000CFA  584F      1282          addq.w    #4,A7
08000CFC  600E      1283          bra.s     @vsscanf_scanputback_6
                    1284   @vsscanf_scanputback_5:
08000CFE  53B9 0800 1285          subq.l    #1,@vsscanf_bufx
08000D02  2DE0      
08000D04  2079 0800 1286          move.l    @vsscanf_bufx,A0
08000D08  2DE0      
08000D0A  1082      1287          move.b    D2,(A0)
                    1288   @vsscanf_scanputback_6:
08000D0C  2002      1289          move.l    D2,D0
08000D0E  4CDF 000C 1290          movem.l   (A7)+,D2/D3
08000D12  4E5E      1291          unlk      A6
08000D14  4E75      1292          rts
                    1293   @vsscanf_scanspace:
08000D16  4E56 0000 1294          link      A6,#0
08000D1A  48E7 2000 1295          movem.l   D2,-(A7)
                    1296   @vsscanf_scanspace_1:
08000D1E  2F2E 0008 1297          move.l    8(A6),-(A7)
08000D22  6100 FF22 1298          bsr       @vsscanf_scanread
08000D26  584F      1299          addq.w    #4,A7
08000D28  2400      1300          move.l    D0,D2
08000D2A  206E 000C 1301          move.l    12(A6),A0
08000D2E  5290      1302          addq.l    #1,(A0)
08000D30  2042      1303          move.l    D2,A0
08000D32  43F9 0800 1304          lea       __ctype,A1
08000D36  2DFE      
08000D38  1030 9801 1305          move.b    1(A0,A1.L),D0
08000D3C  0200 0010 1306          andi.b    #16,D0
08000D40  66DC      1307          bne       @vsscanf_scanspace_1
08000D42  2002      1308          move.l    D2,D0
08000D44  4CDF 0004 1309          movem.l   (A7)+,D2
08000D48  4E5E      1310          unlk      A6
08000D4A  4E75      1311          rts
                    1312   @vsscanf_scanselect:
08000D4C  4E56 0000 1313          link      A6,#0
08000D50  48E7 3F20 1314          movem.l   D2/D3/D4/D5/D6/D7/A2,-(A7)
08000D54  262E 000C 1315          move.l    12(A6),D3
08000D58  2C2E 0018 1316          move.l    24(A6),D6
08000D5C  2E2E 0014 1317          move.l    20(A6),D7
08000D60  2043      1318          move.l    D3,A0
08000D62  1010      1319          move.b    (A0),D0
08000D64  4880      1320          ext.w     D0
08000D66  48C0      1321          ext.l     D0
08000D68  0C80 0000 1322          cmp.l     #94,D0
08000D6C  005E      
08000D6E  6608      1323          bne.s     @vsscanf_scanselect_1
08000D70  347C 0001 1324          move.w    #1,A2
08000D74  5283      1325          addq.l    #1,D3
08000D76  6004      1326          bra.s     @vsscanf_scanselect_2
                    1327   @vsscanf_scanselect_1:
08000D78  347C 0000 1328          move.w    #0,A2
                    1329   @vsscanf_scanselect_2:
08000D7C  202E 0010 1330          move.l    16(A6),D0
08000D80  53AE 0010 1331          subq.l    #1,16(A6)
08000D84  4A80      1332          tst.l     D0
08000D86  6700 0108 1333          beq       @vsscanf_scanselect_5
08000D8A  2F2E 0008 1334          move.l    8(A6),-(A7)
08000D8E  6100 FEB6 1335          bsr       @vsscanf_scanread
08000D92  584F      1336          addq.w    #4,A7
08000D94  2800      1337          move.l    D0,D4
08000D96  0C84 FFFF 1338          cmp.l     #-1,D4
08000D9A  FFFF      
08000D9C  6604      1339          bne.s     @vsscanf_scanselect_6
08000D9E  6000 00F0 1340          bra       @vsscanf_scanselect_5
                    1341   @vsscanf_scanselect_6:
08000DA2  206E 001C 1342          move.l    28(A6),A0
08000DA6  5290      1343          addq.l    #1,(A0)
08000DA8  4285      1344          clr.l     D5
08000DAA  4282      1345          clr.l     D2
                    1346   @vsscanf_scanselect_8:
08000DAC  2043      1347          move.l    D3,A0
08000DAE  1030 2800 1348          move.b    0(A0,D2.L),D0
08000DB2  4880      1349          ext.w     D0
08000DB4  48C0      1350          ext.l     D0
08000DB6  0C80 0000 1351          cmp.l     #93,D0
08000DBA  005D      
08000DBC  6700 008E 1352          beq       @vsscanf_scanselect_10
08000DC0  4A82      1353          tst.l     D2
08000DC2  6716      1354          beq.s     @vsscanf_scanselect_11
08000DC4  2043      1355          move.l    D3,A0
08000DC6  1030 2800 1356          move.b    0(A0,D2.L),D0
08000DCA  4880      1357          ext.w     D0
08000DCC  48C0      1358          ext.l     D0
08000DCE  0C80 0000 1359          cmp.l     #93,D0
08000DD2  005D      
08000DD4  6604      1360          bne.s     @vsscanf_scanselect_11
08000DD6  6000 0074 1361          bra       @vsscanf_scanselect_10
                    1362   @vsscanf_scanselect_11:
08000DDA  4A82      1363          tst.l     D2
08000DDC  6700 0058 1364          beq       @vsscanf_scanselect_15
08000DE0  2043      1365          move.l    D3,A0
08000DE2  1030 2800 1366          move.b    0(A0,D2.L),D0
08000DE6  4880      1367          ext.w     D0
08000DE8  48C0      1368          ext.l     D0
08000DEA  0C80 0000 1369          cmp.l     #45,D0
08000DEE  002D      
08000DF0  6600 0044 1370          bne       @vsscanf_scanselect_15
08000DF4  2043      1371          move.l    D3,A0
08000DF6  2002      1372          move.l    D2,D0
08000DF8  5380      1373          subq.l    #1,D0
08000DFA  2243      1374          move.l    D3,A1
08000DFC  2F08      1375          move.l    A0,-(A7)
08000DFE  2042      1376          move.l    D2,A0
08000E00  1230 0800 1377          move.b    0(A0,D0.L),D1
08000E04  B230 9801 1378          cmp.b     1(A0,A1.L),D1
08000E08  6C00 002C 1379          bge       @vsscanf_scanselect_15
08000E0C  205F      1380          move.l    (A7)+,A0
08000E0E  2043      1381          move.l    D3,A0
08000E10  2002      1382          move.l    D2,D0
08000E12  5380      1383          subq.l    #1,D0
08000E14  1030 0800 1384          move.b    0(A0,D0.L),D0
08000E18  4880      1385          ext.w     D0
08000E1A  48C0      1386          ext.l     D0
08000E1C  B880      1387          cmp.l     D0,D4
08000E1E  6D12      1388          blt.s     @vsscanf_scanselect_17
08000E20  2043      1389          move.l    D3,A0
08000E22  2242      1390          move.l    D2,A1
08000E24  1031 8801 1391          move.b    1(A1,A0.L),D0
08000E28  4880      1392          ext.w     D0
08000E2A  48C0      1393          ext.l     D0
08000E2C  B880      1394          cmp.l     D0,D4
08000E2E  6E02      1395          bgt.s     @vsscanf_scanselect_17
08000E30  601A      1396          bra.s     @vsscanf_scanselect_10
                    1397   @vsscanf_scanselect_17:
08000E32  5282      1398          addq.l    #1,D2
08000E34  6010      1399          bra.s     @vsscanf_scanselect_19
                    1400   @vsscanf_scanselect_15:
08000E36  2043      1401          move.l    D3,A0
08000E38  1030 2800 1402          move.b    0(A0,D2.L),D0
08000E3C  4880      1403          ext.w     D0
08000E3E  48C0      1404          ext.l     D0
08000E40  B880      1405          cmp.l     D0,D4
08000E42  6602      1406          bne.s     @vsscanf_scanselect_19
08000E44  6006      1407          bra.s     @vsscanf_scanselect_10
                    1408   @vsscanf_scanselect_19:
08000E46  5282      1409          addq.l    #1,D2
08000E48  6000 FF62 1410          bra       @vsscanf_scanselect_8
                    1411   @vsscanf_scanselect_10:
08000E4C  4A82      1412          tst.l     D2
08000E4E  6712      1413          beq.s     @vsscanf_scanselect_23
08000E50  2043      1414          move.l    D3,A0
08000E52  1030 2800 1415          move.b    0(A0,D2.L),D0
08000E56  4880      1416          ext.w     D0
08000E58  48C0      1417          ext.l     D0
08000E5A  0C80 0000 1418          cmp.l     #93,D0
08000E5E  005D      
08000E60  6702      1419          beq.s     @vsscanf_scanselect_21
                    1420   @vsscanf_scanselect_23:
08000E62  7A01      1421          moveq     #1,D5
                    1422   @vsscanf_scanselect_21:
08000E64  200A      1423          move.l    A2,D0
08000E66  6712      1424          beq.s     @vsscanf_scanselect_24
08000E68  4A85      1425          tst.l     D5
08000E6A  660C      1426          bne.s     @vsscanf_scanselect_26
08000E6C  4A87      1427          tst.l     D7
08000E6E  6606      1428          bne.s     @vsscanf_scanselect_28
08000E70  2046      1429          move.l    D6,A0
08000E72  5286      1430          addq.l    #1,D6
08000E74  1084      1431          move.b    D4,(A0)
                    1432   @vsscanf_scanselect_28:
08000E76  6014      1433          bra.s     @vsscanf_scanselect_4
                    1434   @vsscanf_scanselect_26:
08000E78  6016      1435          bra.s     @vsscanf_scanselect_5
                    1436   @vsscanf_scanselect_24:
08000E7A  4A85      1437          tst.l     D5
08000E7C  670C      1438          beq.s     @vsscanf_scanselect_30
08000E7E  4A87      1439          tst.l     D7
08000E80  6606      1440          bne.s     @vsscanf_scanselect_32
08000E82  2046      1441          move.l    D6,A0
08000E84  5286      1442          addq.l    #1,D6
08000E86  1084      1443          move.b    D4,(A0)
                    1444   @vsscanf_scanselect_32:
08000E88  6002      1445          bra.s     @vsscanf_scanselect_4
                    1446   @vsscanf_scanselect_30:
08000E8A  6004      1447          bra.s     @vsscanf_scanselect_5
                    1448   @vsscanf_scanselect_4:
08000E8C  6000 FEEE 1449          bra       @vsscanf_scanselect_2
                    1450   @vsscanf_scanselect_5:
08000E90  0C84 FFFF 1451          cmp.l     #-1,D4
08000E94  FFFF      
08000E96  6712      1452          beq.s     @vsscanf_scanselect_34
08000E98  2F04      1453          move.l    D4,-(A7)
08000E9A  2F2E 0008 1454          move.l    8(A6),-(A7)
08000E9E  6100 FE14 1455          bsr       @vsscanf_scanputback
08000EA2  504F      1456          addq.w    #8,A7
08000EA4  206E 001C 1457          move.l    28(A6),A0
08000EA8  5390      1458          subq.l    #1,(A0)
                    1459   @vsscanf_scanselect_34:
08000EAA  4A87      1460          tst.l     D7
08000EAC  6604      1461          bne.s     @vsscanf_scanselect_36
08000EAE  2046      1462          move.l    D6,A0
08000EB0  4210      1463          clr.b     (A0)
                    1464   @vsscanf_scanselect_36:
08000EB2  5283      1465          addq.l    #1,D3
08000EB4  2043      1466          move.l    D3,A0
08000EB6  1010      1467          move.b    (A0),D0
08000EB8  4880      1468          ext.w     D0
08000EBA  48C0      1469          ext.l     D0
08000EBC  0C80 0000 1470          cmp.l     #93,D0
08000EC0  005D      
08000EC2  6702      1471          beq.s     @vsscanf_scanselect_40
08000EC4  60EC      1472          bra       @vsscanf_scanselect_36
                    1473   @vsscanf_scanselect_40:
08000EC6  5283      1474          addq.l    #1,D3
08000EC8  2003      1475          move.l    D3,D0
08000ECA  4CDF 04FC 1476          movem.l   (A7)+,D2/D3/D4/D5/D6/D7/A2
08000ECE  4E5E      1477          unlk      A6
08000ED0  4E75      1478          rts
                    1479   _scanflush:
08000ED2  41F9 0802 1480          lea       @vsscanf_buf,A0
08000ED6  03DE      
08000ED8  23C8 0800 1481          move.l    A0,@vsscanf_bufx
08000EDC  2DE0      
08000EDE  4239 0802 1482          clr.b     @vsscanf_buf
08000EE2  03DE      
08000EE4  4878 FFFF 1483          pea       -1
08000EE8  6100 0D4A 1484          bsr       _ungetch
08000EEC  584F      1485          addq.w    #4,A7
08000EEE  4E75      1486          rts
                    1487   _vsscanf:
08000EF0  4E56 FF84 1488          link      A6,#-124
08000EF4  48E7 3F3C 1489          movem.l   D2/D3/D4/D5/D6/D7/A2/A3/A4/A5,-(A7)
08000EF8  45F9 0800 1490          lea       @vsscanf_scanread,A2
08000EFC  0C46      
08000EFE  4BF9 0800 1491          lea       @vsscanf_scanputback,A5
08000F02  0CB4      
08000F04  4AAE 0008 1492          tst.l     8(A6)
08000F08  6706      1493          beq.s     vsscanf_1
08000F0A  41EE 0008 1494          lea       8(A6),A0
08000F0E  6004      1495          bra.s     vsscanf_2
                    1496   vsscanf_1:
08000F10  4280      1497          clr.l     D0
08000F12  2040      1498          move.l    D0,A0
                    1499   vsscanf_2:
08000F14  2A08      1500          move.l    A0,D5
08000F16  42AE FFE0 1501          clr.l     -32(A6)
08000F1A  4284      1502          clr.l     D4
                    1503   vsscanf_3:
08000F1C  206E 000C 1504          move.l    12(A6),A0
08000F20  52AE 000C 1505          addq.l    #1,12(A6)
08000F24  1010      1506          move.b    (A0),D0
08000F26  4880      1507          ext.w     D0
08000F28  48C0      1508          ext.l     D0
08000F2A  2600      1509          move.l    D0,D3
08000F2C  6700 07E0 1510          beq       vsscanf_5
08000F30  4286      1511          clr.l     D6
08000F32  4287      1512          clr.l     D7
08000F34  0C83 0000 1513          cmp.l     #32,D3
08000F38  0020      
08000F3A  6712      1514          beq.s     vsscanf_8
08000F3C  0C83 0000 1515          cmp.l     #9,D3
08000F40  0009      
08000F42  670A      1516          beq.s     vsscanf_8
08000F44  0C83 0000 1517          cmp.l     #10,D3
08000F48  000A      
08000F4A  6600 0046 1518          bne       vsscanf_6
                    1519   vsscanf_8:
08000F4E  2F05      1520          move.l    D5,-(A7)
08000F50  4E92      1521          jsr       (A2)
08000F52  584F      1522          addq.w    #4,A7
08000F54  2400      1523          move.l    D0,D2
08000F56  52AE FFE0 1524          addq.l    #1,-32(A6)
08000F5A  0C82 FFFF 1525          cmp.l     #-1,D2
08000F5E  FFFF      
08000F60  660E      1526          bne.s     vsscanf_11
08000F62  4A84      1527          tst.l     D4
08000F64  6704      1528          beq.s     vsscanf_13
08000F66  2004      1529          move.l    D4,D0
08000F68  6002      1530          bra.s     vsscanf_14
                    1531   vsscanf_13:
08000F6A  70FF      1532          moveq     #-1,D0
                    1533   vsscanf_14:
08000F6C  6000 07A2 1534          bra       vsscanf_15
                    1535   vsscanf_11:
08000F70  2042      1536          move.l    D2,A0
08000F72  43F9 0800 1537          lea       __ctype,A1
08000F76  2DFE      
08000F78  1030 9801 1538          move.b    1(A0,A1.L),D0
08000F7C  0200 0010 1539          andi.b    #16,D0
08000F80  66CC      1540          bne       vsscanf_8
08000F82  53AE FFE0 1541          subq.l    #1,-32(A6)
08000F86  2F02      1542          move.l    D2,-(A7)
08000F88  2F05      1543          move.l    D5,-(A7)
08000F8A  4E95      1544          jsr       (A5)
08000F8C  504F      1545          addq.w    #8,A7
08000F8E  6000 077A 1546          bra       vsscanf_185
                    1547   vsscanf_6:
08000F92  0C83 0000 1548          cmp.l     #37,D3
08000F96  0025      
08000F98  6600 073C 1549          bne       vsscanf_173
08000F9C  206E 000C 1550          move.l    12(A6),A0
08000FA0  52AE 000C 1551          addq.l    #1,12(A6)
08000FA4  1010      1552          move.b    (A0),D0
08000FA6  4880      1553          ext.w     D0
08000FA8  48C0      1554          ext.l     D0
08000FAA  2600      1555          move.l    D0,D3
08000FAC  42AE FFE8 1556          clr.l     -24(A6)
08000FB0  4286      1557          clr.l     D6
08000FB2  42AE FFE4 1558          clr.l     -28(A6)
08000FB6  387C 7FFF 1559          move.w    #32767,A4
08000FBA  0C83 0000 1560          cmp.l     #42,D3
08000FBE  002A      
08000FC0  6612      1561          bne.s     vsscanf_18
08000FC2  7C01      1562          moveq     #1,D6
08000FC4  206E 000C 1563          move.l    12(A6),A0
08000FC8  52AE 000C 1564          addq.l    #1,12(A6)
08000FCC  1010      1565          move.b    (A0),D0
08000FCE  4880      1566          ext.w     D0
08000FD0  48C0      1567          ext.l     D0
08000FD2  2600      1568          move.l    D0,D3
                    1569   vsscanf_18:
08000FD4  2043      1570          move.l    D3,A0
08000FD6  43F9 0800 1571          lea       __ctype,A1
08000FDA  2DFE      
08000FDC  1030 9801 1572          move.b    1(A0,A1.L),D0
08000FE0  0200 0004 1573          andi.b    #4,D0
08000FE4  6700 0046 1574          beq       vsscanf_24
08000FE8  2003      1575          move.l    D3,D0
08000FEA  0480 0000 1576          sub.l     #48,D0
08000FEE  0030      
08000FF0  2840      1577          move.l    D0,A4
                    1578   vsscanf_22:
08000FF2  206E 000C 1579          move.l    12(A6),A0
08000FF6  52AE 000C 1580          addq.l    #1,12(A6)
08000FFA  1010      1581          move.b    (A0),D0
08000FFC  4880      1582          ext.w     D0
08000FFE  48C0      1583          ext.l     D0
08001000  2600      1584          move.l    D0,D3
08001002  2040      1585          move.l    D0,A0
08001004  43F9 0800 1586          lea       __ctype,A1
08001008  2DFE      
0800100A  1030 9801 1587          move.b    1(A0,A1.L),D0
0800100E  0200 0004 1588          andi.b    #4,D0
08001012  6718      1589          beq.s     vsscanf_24
08001014  70D0      1590          moveq     #-48,D0
08001016  2F0C      1591          move.l    A4,-(A7)
08001018  4878 000A 1592          pea       10
0800101C  6100 FB9A 1593          bsr       LMUL
08001020  2217      1594          move.l    (A7),D1
08001022  504F      1595          addq.w    #8,A7
08001024  D283      1596          add.l     D3,D1
08001026  D081      1597          add.l     D1,D0
08001028  2840      1598          move.l    D0,A4
0800102A  60C6      1599          bra       vsscanf_22
                    1600   vsscanf_24:
0800102C  0C83 0000 1601          cmp.l     #108,D3
08001030  006C      
08001032  6708      1602          beq.s     vsscanf_27
08001034  0C83 0000 1603          cmp.l     #76,D3
08001038  004C      
0800103A  661A      1604          bne.s     vsscanf_25
                    1605   vsscanf_27:
0800103C  2D7C 0000 1606          move.l    #1,-28(A6)
08001040  0001 FFE4 
08001044  206E 000C 1607          move.l    12(A6),A0
08001048  52AE 000C 1608          addq.l    #1,12(A6)
0800104C  1010      1609          move.b    (A0),D0
0800104E  4880      1610          ext.w     D0
08001050  48C0      1611          ext.l     D0
08001052  2600      1612          move.l    D0,D3
08001054  6020      1613          bra.s     vsscanf_28
                    1614   vsscanf_25:
08001056  0C83 0000 1615          cmp.l     #104,D3
0800105A  0068      
0800105C  6618      1616          bne.s     vsscanf_28
0800105E  2D7C 0000 1617          move.l    #1,-24(A6)
08001062  0001 FFE8 
08001066  206E 000C 1618          move.l    12(A6),A0
0800106A  52AE 000C 1619          addq.l    #1,12(A6)
0800106E  1010      1620          move.b    (A0),D0
08001070  4880      1621          ext.w     D0
08001072  48C0      1622          ext.l     D0
08001074  2600      1623          move.l    D0,D3
                    1624   vsscanf_28:
08001076  0C83 0000 1625          cmp.l     #91,D3
0800107A  005B      
0800107C  6600 0036 1626          bne       vsscanf_30
08001080  4A86      1627          tst.l     D6
08001082  660A      1628          bne.s     vsscanf_32
08001084  206E 0010 1629          move.l    16(A6),A0
08001088  58AE 0010 1630          addq.l    #4,16(A6)
0800108C  2650      1631          move.l    (A0),A3
                    1632   vsscanf_32:
0800108E  486E FFE0 1633          pea       -32(A6)
08001092  2F0B      1634          move.l    A3,-(A7)
08001094  2F06      1635          move.l    D6,-(A7)
08001096  2F0C      1636          move.l    A4,-(A7)
08001098  2F2E 000C 1637          move.l    12(A6),-(A7)
0800109C  2F05      1638          move.l    D5,-(A7)
0800109E  6100 FCAC 1639          bsr       @vsscanf_scanselect
080010A2  DEFC 0018 1640          add.w     #24,A7
080010A6  2D40 000C 1641          move.l    D0,12(A6)
080010AA  4A86      1642          tst.l     D6
080010AC  6602      1643          bne.s     vsscanf_34
080010AE  5284      1644          addq.l    #1,D4
                    1645   vsscanf_34:
080010B0  6000 0658 1646          bra       vsscanf_185
                    1647   vsscanf_30:
080010B4  0C83 0000 1648          cmp.l     #110,D3
080010B8  006E      
080010BA  6618      1649          bne.s     vsscanf_36
080010BC  4A86      1650          tst.l     D6
080010BE  6610      1651          bne.s     vsscanf_38
080010C0  206E 0010 1652          move.l    16(A6),A0
080010C4  58AE 0010 1653          addq.l    #4,16(A6)
080010C8  2650      1654          move.l    (A0),A3
080010CA  26AE FFE0 1655          move.l    -32(A6),(A3)
080010CE  5284      1656          addq.l    #1,D4
                    1657   vsscanf_38:
080010D0  6000 0638 1658          bra       vsscanf_185
                    1659   vsscanf_36:
080010D4  0C83 0000 1660          cmp.l     #115,D3
080010D8  0073      
080010DA  6600 00A2 1661          bne       vsscanf_40
080010DE  486E FFE0 1662          pea       -32(A6)
080010E2  2F05      1663          move.l    D5,-(A7)
080010E4  6100 FC30 1664          bsr       @vsscanf_scanspace
080010E8  504F      1665          addq.w    #8,A7
080010EA  2400      1666          move.l    D0,D2
080010EC  4A86      1667          tst.l     D6
080010EE  660A      1668          bne.s     vsscanf_42
080010F0  206E 0010 1669          move.l    16(A6),A0
080010F4  58AE 0010 1670          addq.l    #4,16(A6)
080010F8  2650      1671          move.l    (A0),A3
                    1672   vsscanf_42:
080010FA  52AE FFE0 1673          addq.l    #1,-32(A6)
                    1674   vsscanf_44:
080010FE  200C      1675          move.l    A4,D0
08001100  534C      1676          subq.w    #1,A4
08001102  4A80      1677          tst.l     D0
08001104  6700 0032 1678          beq       vsscanf_46
08001108  2042      1679          move.l    D2,A0
0800110A  43F9 0800 1680          lea       __ctype,A1
0800110E  2DFE      
08001110  1030 9801 1681          move.b    1(A0,A1.L),D0
08001114  0200 0010 1682          andi.b    #16,D0
08001118  661E      1683          bne.s     vsscanf_46
0800111A  0C82 FFFF 1684          cmp.l     #-1,D2
0800111E  FFFF      
08001120  6716      1685          beq.s     vsscanf_46
08001122  7E01      1686          moveq     #1,D7
08001124  4A86      1687          tst.l     D6
08001126  6602      1688          bne.s     vsscanf_47
08001128  16C2      1689          move.b    D2,(A3)+
                    1690   vsscanf_47:
0800112A  2F05      1691          move.l    D5,-(A7)
0800112C  4E92      1692          jsr       (A2)
0800112E  584F      1693          addq.w    #4,A7
08001130  2400      1694          move.l    D0,D2
08001132  52AE FFE0 1695          addq.l    #1,-32(A6)
08001136  60C6      1696          bra       vsscanf_44
                    1697   vsscanf_46:
08001138  4A86      1698          tst.l     D6
0800113A  6608      1699          bne.s     vsscanf_51
0800113C  4213      1700          clr.b     (A3)
0800113E  4A87      1701          tst.l     D7
08001140  6702      1702          beq.s     vsscanf_51
08001142  5284      1703          addq.l    #1,D4
                    1704   vsscanf_51:
08001144  0C82 FFFF 1705          cmp.l     #-1,D2
08001148  FFFF      
0800114A  6708      1706          beq.s     vsscanf_55
0800114C  4A86      1707          tst.l     D6
0800114E  661E      1708          bne.s     vsscanf_53
08001150  4A87      1709          tst.l     D7
08001152  661A      1710          bne.s     vsscanf_53
                    1711   vsscanf_55:
08001154  4A84      1712          tst.l     D4
08001156  6704      1713          beq.s     vsscanf_56
08001158  2004      1714          move.l    D4,D0
0800115A  600E      1715          bra.s     vsscanf_59
                    1716   vsscanf_56:
0800115C  0C82 FFFF 1717          cmp.l     #-1,D2
08001160  FFFF      
08001162  6604      1718          bne.s     vsscanf_58
08001164  70FF      1719          moveq     #-1,D0
08001166  6002      1720          bra.s     vsscanf_59
                    1721   vsscanf_58:
08001168  2004      1722          move.l    D4,D0
                    1723   vsscanf_59:
0800116A  6000 05A4 1724          bra       vsscanf_15
                    1725   vsscanf_53:
0800116E  53AE FFE0 1726          subq.l    #1,-32(A6)
08001172  2F02      1727          move.l    D2,-(A7)
08001174  2F05      1728          move.l    D5,-(A7)
08001176  4E95      1729          jsr       (A5)
08001178  504F      1730          addq.w    #8,A7
0800117A  6000 058E 1731          bra       vsscanf_185
                    1732   vsscanf_40:
0800117E  0C83 0000 1733          cmp.l     #99,D3
08001182  0063      
08001184  6600 0088 1734          bne       vsscanf_60
08001188  4A86      1735          tst.l     D6
0800118A  660A      1736          bne.s     vsscanf_62
0800118C  206E 0010 1737          move.l    16(A6),A0
08001190  58AE 0010 1738          addq.l    #4,16(A6)
08001194  2650      1739          move.l    (A0),A3
                    1740   vsscanf_62:
08001196  2F05      1741          move.l    D5,-(A7)
08001198  4E92      1742          jsr       (A2)
0800119A  584F      1743          addq.w    #4,A7
0800119C  2400      1744          move.l    D0,D2
0800119E  52AE FFE0 1745          addq.l    #1,-32(A6)
080011A2  200C      1746          move.l    A4,D0
080011A4  0C80 0000 1747          cmp.l     #32767,D0
080011A8  7FFF      
080011AA  6604      1748          bne.s     vsscanf_64
080011AC  387C 0001 1749          move.w    #1,A4
                    1750   vsscanf_64:
080011B0  0C82 FFFF 1751          cmp.l     #-1,D2
080011B4  FFFF      
080011B6  6606      1752          bne.s     vsscanf_66
080011B8  4A86      1753          tst.l     D6
080011BA  6602      1754          bne.s     vsscanf_66
080011BC  5384      1755          subq.l    #1,D4
                    1756   vsscanf_66:
080011BE  200C      1757          move.l    A4,D0
080011C0  534C      1758          subq.w    #1,A4
080011C2  4A80      1759          tst.l     D0
080011C4  671C      1760          beq.s     vsscanf_70
080011C6  0C82 FFFF 1761          cmp.l     #-1,D2
080011CA  FFFF      
080011CC  6714      1762          beq.s     vsscanf_70
080011CE  4A86      1763          tst.l     D6
080011D0  6602      1764          bne.s     vsscanf_71
080011D2  16C2      1765          move.b    D2,(A3)+
                    1766   vsscanf_71:
080011D4  2F05      1767          move.l    D5,-(A7)
080011D6  4E92      1768          jsr       (A2)
080011D8  584F      1769          addq.w    #4,A7
080011DA  2400      1770          move.l    D0,D2
080011DC  52AE FFE0 1771          addq.l    #1,-32(A6)
080011E0  60DC      1772          bra       vsscanf_66
                    1773   vsscanf_70:
080011E2  0C82 FFFF 1774          cmp.l     #-1,D2
080011E6  FFFF      
080011E8  660E      1775          bne.s     vsscanf_73
080011EA  4A84      1776          tst.l     D4
080011EC  6704      1777          beq.s     vsscanf_75
080011EE  2004      1778          move.l    D4,D0
080011F0  6002      1779          bra.s     vsscanf_76
                    1780   vsscanf_75:
080011F2  70FF      1781          moveq     #-1,D0
                    1782   vsscanf_76:
080011F4  6000 051A 1783          bra       vsscanf_15
                    1784   vsscanf_73:
080011F8  4A86      1785          tst.l     D6
080011FA  6602      1786          bne.s     vsscanf_77
080011FC  5284      1787          addq.l    #1,D4
                    1788   vsscanf_77:
080011FE  53AE FFE0 1789          subq.l    #1,-32(A6)
08001202  2F02      1790          move.l    D2,-(A7)
08001204  2F05      1791          move.l    D5,-(A7)
08001206  4E95      1792          jsr       (A5)
08001208  504F      1793          addq.w    #8,A7
0800120A  6000 04FE 1794          bra       vsscanf_185
                    1795   vsscanf_60:
0800120E  0C83 0000 1796          cmp.l     #105,D3
08001212  0069      
08001214  6600 005A 1797          bne       vsscanf_82
08001218  486E FFE0 1798          pea       -32(A6)
0800121C  2F05      1799          move.l    D5,-(A7)
0800121E  6100 FAF6 1800          bsr       @vsscanf_scanspace
08001222  504F      1801          addq.w    #8,A7
08001224  2400      1802          move.l    D0,D2
08001226  0C82 0000 1803          cmp.l     #48,D2
0800122A  0030      
0800122C  6600 0034 1804          bne       vsscanf_81
08001230  7E01      1805          moveq     #1,D7
08001232  2F05      1806          move.l    D5,-(A7)
08001234  4E92      1807          jsr       (A2)
08001236  584F      1808          addq.w    #4,A7
08001238  2400      1809          move.l    D0,D2
0800123A  2F02      1810          move.l    D2,-(A7)
0800123C  6100 0988 1811          bsr       _tolower
08001240  584F      1812          addq.w    #4,A7
08001242  0C80 0000 1813          cmp.l     #120,D0
08001246  0078      
08001248  6604      1814          bne.s     vsscanf_83
0800124A  7678      1815          moveq     #120,D3
0800124C  600E      1816          bra.s     vsscanf_84
                    1817   vsscanf_83:
0800124E  53AE FFE0 1818          subq.l    #1,-32(A6)
08001252  2F02      1819          move.l    D2,-(A7)
08001254  2F05      1820          move.l    D5,-(A7)
08001256  4E95      1821          jsr       (A5)
08001258  504F      1822          addq.w    #8,A7
0800125A  766F      1823          moveq     #111,D3
                    1824   vsscanf_84:
0800125C  52AE FFE0 1825          addq.l    #1,-32(A6)
08001260  600E      1826          bra.s     vsscanf_82
                    1827   vsscanf_81:
08001262  53AE FFE0 1828          subq.l    #1,-32(A6)
08001266  2F02      1829          move.l    D2,-(A7)
08001268  2F05      1830          move.l    D5,-(A7)
0800126A  4E95      1831          jsr       (A5)
0800126C  504F      1832          addq.w    #8,A7
0800126E  7664      1833          moveq     #100,D3
                    1834   vsscanf_82:
08001270  0C83 0000 1835          cmp.l     #100,D3
08001274  0064      
08001276  671A      1836          beq.s     vsscanf_87
08001278  0C83 0000 1837          cmp.l     #117,D3
0800127C  0075      
0800127E  6712      1838          beq.s     vsscanf_87
08001280  0C83 0000 1839          cmp.l     #120,D3
08001284  0078      
08001286  670A      1840          beq.s     vsscanf_87
08001288  0C83 0000 1841          cmp.l     #111,D3
0800128C  006F      
0800128E  6600 01A8 1842          bne       vsscanf_85
                    1843   vsscanf_87:
08001292  486E FFE0 1844          pea       -32(A6)
08001296  2F05      1845          move.l    D5,-(A7)
08001298  6100 FA7C 1846          bsr       @vsscanf_scanspace
0800129C  504F      1847          addq.w    #8,A7
0800129E  2400      1848          move.l    D0,D2
080012A0  2D7C 0000 1849          move.l    #10,-8(A6)
080012A4  000A FFF8 
080012A8  0C83 0000 1850          cmp.l     #120,D3
080012AC  0078      
080012AE  6608      1851          bne.s     vsscanf_88
080012B0  2D7C 0000 1852          move.l    #16,-8(A6)
080012B4  0010 FFF8 
                    1853   vsscanf_88:
080012B8  0C83 0000 1854          cmp.l     #111,D3
080012BC  006F      
080012BE  6608      1855          bne.s     vsscanf_90
080012C0  2D7C 0000 1856          move.l    #8,-8(A6)
080012C4  0008 FFF8 
                    1857   vsscanf_90:
080012C8  4A86      1858          tst.l     D6
080012CA  660A      1859          bne.s     vsscanf_92
080012CC  206E 0010 1860          move.l    16(A6),A0
080012D0  58AE 0010 1861          addq.l    #4,16(A6)
080012D4  2650      1862          move.l    (A0),A3
                    1863   vsscanf_92:
080012D6  42AE FFDC 1864          clr.l     -36(A6)
080012DA  52AE FFE0 1865          addq.l    #1,-32(A6)
080012DE  0C83 0000 1866          cmp.l     #117,D3
080012E2  0075      
080012E4  671E      1867          beq.s     vsscanf_94
080012E6  0C82 0000 1868          cmp.l     #45,D2
080012EA  002D      
080012EC  6616      1869          bne.s     vsscanf_94
080012EE  2F05      1870          move.l    D5,-(A7)
080012F0  4E92      1871          jsr       (A2)
080012F2  584F      1872          addq.w    #4,A7
080012F4  2400      1873          move.l    D0,D2
080012F6  52AE FFE0 1874          addq.l    #1,-32(A6)
080012FA  2D7C 0000 1875          move.l    #1,-36(A6)
080012FE  0001 FFDC 
08001302  7E01      1876          moveq     #1,D7
                    1877   vsscanf_94:
08001304  42AE FFFC 1878          clr.l     -4(A6)
08001308  0C82 FFFF 1879          cmp.l     #-1,D2
0800130C  FFFF      
0800130E  660E      1880          bne.s     vsscanf_96
08001310  4A84      1881          tst.l     D4
08001312  6704      1882          beq.s     vsscanf_98
08001314  2004      1883          move.l    D4,D0
08001316  6002      1884          bra.s     vsscanf_99
                    1885   vsscanf_98:
08001318  70FF      1886          moveq     #-1,D0
                    1887   vsscanf_99:
0800131A  6000 03F4 1888          bra       vsscanf_15
                    1889   vsscanf_96:
0800131E  200C      1890          move.l    A4,D0
08001320  534C      1891          subq.w    #1,A4
08001322  4A80      1892          tst.l     D0
08001324  6700 0092 1893          beq       vsscanf_102
08001328  0C83 0000 1894          cmp.l     #120,D3
0800132C  0078      
0800132E  6620      1895          bne.s     vsscanf_104
08001330  2F02      1896          move.l    D2,-(A7)
08001332  6100 08D4 1897          bsr       _toupper
08001336  584F      1898          addq.w    #4,A7
08001338  0C80 0000 1899          cmp.l     #65,D0
0800133C  0041      
0800133E  6D10      1900          blt.s     vsscanf_104
08001340  2F02      1901          move.l    D2,-(A7)
08001342  6100 08C4 1902          bsr       _toupper
08001346  584F      1903          addq.w    #4,A7
08001348  0C80 0000 1904          cmp.l     #70,D0
0800134C  0046      
0800134E  6F14      1905          ble.s     vsscanf_103
                    1906   vsscanf_104:
08001350  2042      1907          move.l    D2,A0
08001352  43F9 0800 1908          lea       __ctype,A1
08001356  2DFE      
08001358  1030 9801 1909          move.b    1(A0,A1.L),D0
0800135C  0200 0004 1910          andi.b    #4,D0
08001360  6700 0056 1911          beq       vsscanf_102
                    1912   vsscanf_103:
08001364  2042      1913          move.l    D2,A0
08001366  43F9 0800 1914          lea       __ctype,A1
0800136A  2DFE      
0800136C  1030 9801 1915          move.b    1(A0,A1.L),D0
08001370  0200 0004 1916          andi.b    #4,D0
08001374  6614      1917          bne.s     vsscanf_105
08001376  70F9      1918          moveq     #-7,D0
08001378  2F00      1919          move.l    D0,-(A7)
0800137A  2F02      1920          move.l    D2,-(A7)
0800137C  6100 088A 1921          bsr       _toupper
08001380  584F      1922          addq.w    #4,A7
08001382  2200      1923          move.l    D0,D1
08001384  201F      1924          move.l    (A7)+,D0
08001386  D081      1925          add.l     D1,D0
08001388  2400      1926          move.l    D0,D2
                    1927   vsscanf_105:
0800138A  2F2E FFFC 1928          move.l    -4(A6),-(A7)
0800138E  2F2E FFF8 1929          move.l    -8(A6),-(A7)
08001392  6100 F824 1930          bsr       LMUL
08001396  2017      1931          move.l    (A7),D0
08001398  504F      1932          addq.w    #8,A7
0800139A  D082      1933          add.l     D2,D0
0800139C  0480 0000 1934          sub.l     #48,D0
080013A0  0030      
080013A2  2D40 FFFC 1935          move.l    D0,-4(A6)
080013A6  2F05      1936          move.l    D5,-(A7)
080013A8  4E92      1937          jsr       (A2)
080013AA  584F      1938          addq.w    #4,A7
080013AC  2400      1939          move.l    D0,D2
080013AE  52AE FFE0 1940          addq.l    #1,-32(A6)
080013B2  7E01      1941          moveq     #1,D7
080013B4  6000 FF68 1942          bra       vsscanf_96
                    1943   vsscanf_102:
080013B8  0C82 FFFF 1944          cmp.l     #-1,D2
080013BC  FFFF      
080013BE  6718      1945          beq.s     vsscanf_107
080013C0  2F02      1946          move.l    D2,-(A7)
080013C2  2F05      1947          move.l    D5,-(A7)
080013C4  4E95      1948          jsr       (A5)
080013C6  504F      1949          addq.w    #8,A7
080013C8  53AE FFE0 1950          subq.l    #1,-32(A6)
080013CC  4A87      1951          tst.l     D7
080013CE  6606      1952          bne.s     vsscanf_109
080013D0  2004      1953          move.l    D4,D0
080013D2  6000 033C 1954          bra       vsscanf_15
                    1955   vsscanf_109:
080013D6  6012      1956          bra.s     vsscanf_111
                    1957   vsscanf_107:
080013D8  4A87      1958          tst.l     D7
080013DA  660E      1959          bne.s     vsscanf_111
080013DC  4A84      1960          tst.l     D4
080013DE  6704      1961          beq.s     vsscanf_113
080013E0  2004      1962          move.l    D4,D0
080013E2  6002      1963          bra.s     vsscanf_114
                    1964   vsscanf_113:
080013E4  70FF      1965          moveq     #-1,D0
                    1966   vsscanf_114:
080013E6  6000 0328 1967          bra       vsscanf_15
                    1968   vsscanf_111:
080013EA  4AAE FFDC 1969          tst.l     -36(A6)
080013EE  670A      1970          beq.s     vsscanf_115
080013F0  202E FFFC 1971          move.l    -4(A6),D0
080013F4  4480      1972          neg.l     D0
080013F6  2D40 FFFC 1973          move.l    D0,-4(A6)
                    1974   vsscanf_115:
080013FA  4A86      1975          tst.l     D6
080013FC  6620      1976          bne.s     vsscanf_117
080013FE  4AAE FFE4 1977          tst.l     -28(A6)
08001402  6706      1978          beq.s     vsscanf_119
08001404  26AE FFFC 1979          move.l    -4(A6),(A3)
08001408  6012      1980          bra.s     vsscanf_122
                    1981   vsscanf_119:
0800140A  4AAE FFE8 1982          tst.l     -24(A6)
0800140E  6708      1983          beq.s     vsscanf_121
08001410  202E FFFC 1984          move.l    -4(A6),D0
08001414  3680      1985          move.w    D0,(A3)
08001416  6004      1986          bra.s     vsscanf_122
                    1987   vsscanf_121:
08001418  26AE FFFC 1988          move.l    -4(A6),(A3)
                    1989   vsscanf_122:
0800141C  5284      1990          addq.l    #1,D4
                    1991   vsscanf_117:
0800141E  0C82 FFFF 1992          cmp.l     #-1,D2
08001422  FFFF      
08001424  660E      1993          bne.s     vsscanf_123
08001426  4A84      1994          tst.l     D4
08001428  6704      1995          beq.s     vsscanf_125
0800142A  2004      1996          move.l    D4,D0
0800142C  6002      1997          bra.s     vsscanf_126
                    1998   vsscanf_125:
0800142E  70FF      1999          moveq     #-1,D0
                    2000   vsscanf_126:
08001430  6000 02DE 2001          bra       vsscanf_15
                    2002   vsscanf_123:
08001434  6000 02D4 2003          bra       vsscanf_185
                    2004   vsscanf_85:
08001438  0C83 0000 2005          cmp.l     #103,D3
0800143C  0067      
0800143E  6712      2006          beq.s     vsscanf_129
08001440  0C83 0000 2007          cmp.l     #102,D3
08001444  0066      
08001446  670A      2008          beq.s     vsscanf_129
08001448  0C83 0000 2009          cmp.l     #101,D3
0800144C  0065      
0800144E  6600 0240 2010          bne       vsscanf_127
                    2011   vsscanf_129:
08001452  42AE FFDC 2012          clr.l     -36(A6)
08001456  42AE FFF4 2013          clr.l     -12(A6)
0800145A  42AE FFF0 2014          clr.l     -16(A6)
0800145E  42AE FFEC 2015          clr.l     -20(A6)
08001462  486E FFE0 2016          pea       -32(A6)
08001466  2F05      2017          move.l    D5,-(A7)
08001468  6100 F8AC 2018          bsr       @vsscanf_scanspace
0800146C  504F      2019          addq.w    #8,A7
0800146E  2400      2020          move.l    D0,D2
08001470  4A86      2021          tst.l     D6
08001472  6612      2022          bne.s     vsscanf_130
08001474  206E 0010 2023          move.l    16(A6),A0
08001478  52AE 0010 2024          addq.l    #1,16(A6)
0800147C  1010      2025          move.b    (A0),D0
0800147E  4880      2026          ext.w     D0
08001480  48C0      2027          ext.l     D0
08001482  2D40 FF88 2028          move.l    D0,-120(A6)
                    2029   vsscanf_130:
08001486  41EE FF8C 2030          lea       -116(A6),A0
0800148A  2D48 FF84 2031          move.l    A0,-124(A6)
0800148E  52AE FFE0 2032          addq.l    #1,-32(A6)
08001492  0C82 0000 2033          cmp.l     #45,D2
08001496  002D      
08001498  6622      2034          bne.s     vsscanf_132
0800149A  206E FF84 2035          move.l    -124(A6),A0
0800149E  52AE FF84 2036          addq.l    #1,-124(A6)
080014A2  1082      2037          move.b    D2,(A0)
080014A4  2D7C 0000 2038          move.l    #1,-36(A6)
080014A8  0001 FFDC 
080014AC  2F05      2039          move.l    D5,-(A7)
080014AE  4E92      2040          jsr       (A2)
080014B0  584F      2041          addq.w    #4,A7
080014B2  2400      2042          move.l    D0,D2
080014B4  52AE FFE0 2043          addq.l    #1,-32(A6)
080014B8  7E01      2044          moveq     #1,D7
080014BA  6016      2045          bra.s     vsscanf_134
                    2046   vsscanf_132:
080014BC  0C82 0000 2047          cmp.l     #43,D2
080014C0  002B      
080014C2  660E      2048          bne.s     vsscanf_134
080014C4  2F05      2049          move.l    D5,-(A7)
080014C6  4E92      2050          jsr       (A2)
080014C8  584F      2051          addq.w    #4,A7
080014CA  2400      2052          move.l    D0,D2
080014CC  52AE FFE0 2053          addq.l    #1,-32(A6)
080014D0  7E01      2054          moveq     #1,D7
                    2055   vsscanf_134:
080014D2  200C      2056          move.l    A4,D0
080014D4  534C      2057          subq.w    #1,A4
080014D6  4A80      2058          tst.l     D0
080014D8  6700 0128 2059          beq       vsscanf_138
080014DC  2042      2060          move.l    D2,A0
080014DE  43F9 0800 2061          lea       __ctype,A1
080014E2  2DFE      
080014E4  1030 9801 2062          move.b    1(A0,A1.L),D0
080014E8  0280 0000 2063          andi.l    #255,D0
080014EC  00FF      
080014EE  0280 0000 2064          andi.l    #16,D0
080014F2  0010      
080014F4  6600 010C 2065          bne       vsscanf_138
080014F8  0C82 FFFF 2066          cmp.l     #-1,D2
080014FC  FFFF      
080014FE  6700 0102 2067          beq       vsscanf_138
08001502  2042      2068          move.l    D2,A0
08001504  43F9 0800 2069          lea       __ctype,A1
08001508  2DFE      
0800150A  1030 9801 2070          move.b    1(A0,A1.L),D0
0800150E  0200 0004 2071          andi.b    #4,D0
08001512  671C      2072          beq.s     vsscanf_139
08001514  206E FF84 2073          move.l    -124(A6),A0
08001518  52AE FF84 2074          addq.l    #1,-124(A6)
0800151C  1082      2075          move.b    D2,(A0)
0800151E  2F05      2076          move.l    D5,-(A7)
08001520  4E92      2077          jsr       (A2)
08001522  584F      2078          addq.w    #4,A7
08001524  2400      2079          move.l    D0,D2
08001526  52AE FFE0 2080          addq.l    #1,-32(A6)
0800152A  7E01      2081          moveq     #1,D7
0800152C  6000 00D0 2082          bra       vsscanf_137
                    2083   vsscanf_139:
08001530  0C82 0000 2084          cmp.l     #46,D2
08001534  002E      
08001536  6600 0036 2085          bne       vsscanf_141
0800153A  4AAE FFEC 2086          tst.l     -20(A6)
0800153E  6606      2087          bne.s     vsscanf_145
08001540  4AAE FFF0 2088          tst.l     -16(A6)
08001544  6704      2089          beq.s     vsscanf_143
                    2090   vsscanf_145:
08001546  6000 00BA 2091          bra       vsscanf_138
                    2092   vsscanf_143:
0800154A  2D7C 0000 2093          move.l    #1,-20(A6)
0800154E  0001 FFEC 
08001552  206E FF84 2094          move.l    -124(A6),A0
08001556  52AE FF84 2095          addq.l    #1,-124(A6)
0800155A  1082      2096          move.b    D2,(A0)
0800155C  2F05      2097          move.l    D5,-(A7)
0800155E  4E92      2098          jsr       (A2)
08001560  584F      2099          addq.w    #4,A7
08001562  2400      2100          move.l    D0,D2
08001564  52AE FFE0 2101          addq.l    #1,-32(A6)
08001568  7E01      2102          moveq     #1,D7
0800156A  6000 0092 2103          bra       vsscanf_137
                    2104   vsscanf_141:
0800156E  2F02      2105          move.l    D2,-(A7)
08001570  6100 0654 2106          bsr       _tolower
08001574  584F      2107          addq.w    #4,A7
08001576  0C80 0000 2108          cmp.l     #101,D0
0800157A  0065      
0800157C  6600 007E 2109          bne       vsscanf_152
08001580  4AAE FFF0 2110          tst.l     -16(A6)
08001584  6704      2111          beq.s     vsscanf_148
08001586  6000 007A 2112          bra       vsscanf_138
                    2113   vsscanf_148:
0800158A  2D7C 0000 2114          move.l    #1,-16(A6)
0800158E  0001 FFF0 
08001592  206E FF84 2115          move.l    -124(A6),A0
08001596  52AE FF84 2116          addq.l    #1,-124(A6)
0800159A  10BC 0065 2117          move.b    #101,(A0)
0800159E  2F05      2118          move.l    D5,-(A7)
080015A0  4E92      2119          jsr       (A2)
080015A2  584F      2120          addq.w    #4,A7
080015A4  2400      2121          move.l    D0,D2
080015A6  52AE FFE0 2122          addq.l    #1,-32(A6)
080015AA  7E01      2123          moveq     #1,D7
080015AC  2042      2124          move.l    D2,A0
080015AE  43F9 0800 2125          lea       __ctype,A1
080015B2  2DFE      
080015B4  1030 9801 2126          move.b    1(A0,A1.L),D0
080015B8  0200 0004 2127          andi.b    #4,D0
080015BC  6704      2128          beq.s     vsscanf_150
080015BE  6000 003E 2129          bra       vsscanf_137
                    2130   vsscanf_150:
080015C2  0C82 0000 2131          cmp.l     #32,D2
080015C6  0020      
080015C8  6710      2132          beq.s     vsscanf_154
080015CA  0C82 0000 2133          cmp.l     #43,D2
080015CE  002B      
080015D0  6708      2134          beq.s     vsscanf_154
080015D2  0C82 0000 2135          cmp.l     #45,D2
080015D6  002D      
080015D8  6622      2136          bne.s     vsscanf_152
                    2137   vsscanf_154:
080015DA  0C82 0000 2138          cmp.l     #45,D2
080015DE  002D      
080015E0  660A      2139          bne.s     vsscanf_155
080015E2  206E FF84 2140          move.l    -124(A6),A0
080015E6  52AE FF84 2141          addq.l    #1,-124(A6)
080015EA  1082      2142          move.b    D2,(A0)
                    2143   vsscanf_155:
080015EC  2F05      2144          move.l    D5,-(A7)
080015EE  4E92      2145          jsr       (A2)
080015F0  584F      2146          addq.w    #4,A7
080015F2  2400      2147          move.l    D0,D2
080015F4  52AE FFE0 2148          addq.l    #1,-32(A6)
080015F8  7E01      2149          moveq     #1,D7
080015FA  6002      2150          bra.s     vsscanf_137
                    2151   vsscanf_152:
080015FC  6004      2152          bra.s     vsscanf_138
                    2153   vsscanf_137:
080015FE  6000 FED2 2154          bra       vsscanf_134
                    2155   vsscanf_138:
08001602  206E FF84 2156          move.l    -124(A6),A0
08001606  4210      2157          clr.b     (A0)
08001608  0C82 FFFF 2158          cmp.l     #-1,D2
0800160C  FFFF      
0800160E  6718      2159          beq.s     vsscanf_157
08001610  2F02      2160          move.l    D2,-(A7)
08001612  2F05      2161          move.l    D5,-(A7)
08001614  4E95      2162          jsr       (A5)
08001616  504F      2163          addq.w    #8,A7
08001618  53AE FFE0 2164          subq.l    #1,-32(A6)
0800161C  4A87      2165          tst.l     D7
0800161E  6606      2166          bne.s     vsscanf_159
08001620  2004      2167          move.l    D4,D0
08001622  6000 00EC 2168          bra       vsscanf_15
                    2169   vsscanf_159:
08001626  6012      2170          bra.s     vsscanf_161
                    2171   vsscanf_157:
08001628  4A87      2172          tst.l     D7
0800162A  660E      2173          bne.s     vsscanf_161
0800162C  4A84      2174          tst.l     D4
0800162E  6704      2175          beq.s     vsscanf_163
08001630  2004      2176          move.l    D4,D0
08001632  6002      2177          bra.s     vsscanf_164
                    2178   vsscanf_163:
08001634  70FF      2179          moveq     #-1,D0
                    2180   vsscanf_164:
08001636  6000 00D8 2181          bra       vsscanf_15
                    2182   vsscanf_161:
0800163A  4A86      2183          tst.l     D6
0800163C  6600 0038 2184          bne       vsscanf_165
08001640  4AAE FFE4 2185          tst.l     -28(A6)
08001644  6718      2186          beq.s     vsscanf_167
08001646  42A7      2187          clr.l     -(A7)
08001648  486E FF8C 2188          pea       -116(A6)
0800164C  6100 00FC 2189          bsr       _strtod
08001650  504F      2190          addq.w    #8,A7
08001652  202E FF88 2191          move.l    -120(A6),D0
08001656  2040      2192          move.l    D0,A0
08001658  F210 7400 2193          fmove.d   FP0,(A0)
********  **** ****  Warning: Floating point emulation or coprocessor required
0800165C  6016      2194          bra.s     vsscanf_168
                    2195   vsscanf_167:
0800165E  42A7      2196          clr.l     -(A7)
08001660  486E FF8C 2197          pea       -116(A6)
08001664  6100 00E4 2198          bsr       _strtod
08001668  504F      2199          addq.w    #8,A7
0800166A  202E FF88 2200          move.l    -120(A6),D0
0800166E  2040      2201          move.l    D0,A0
08001670  F210 6400 2202          fmove.s   FP0,(A0)
                    2203   vsscanf_168:
08001674  5284      2204          addq.l    #1,D4
                    2205   vsscanf_165:
08001676  0C82 FFFF 2206          cmp.l     #-1,D2
0800167A  FFFF      
0800167C  660E      2207          bne.s     vsscanf_169
0800167E  4A84      2208          tst.l     D4
08001680  6704      2209          beq.s     vsscanf_171
08001682  2004      2210          move.l    D4,D0
08001684  6002      2211          bra.s     vsscanf_172
                    2212   vsscanf_171:
08001686  70FF      2213          moveq     #-1,D0
                    2214   vsscanf_172:
08001688  6000 0086 2215          bra       vsscanf_15
                    2216   vsscanf_169:
0800168C  6000 007C 2217          bra       vsscanf_185
                    2218   vsscanf_127:
08001690  0C83 0000 2219          cmp.l     #37,D3
08001694  0025      
08001696  6600 003E 2220          bne       vsscanf_173
0800169A  2F05      2221          move.l    D5,-(A7)
0800169C  4E92      2222          jsr       (A2)
0800169E  584F      2223          addq.w    #4,A7
080016A0  2400      2224          move.l    D0,D2
080016A2  0C82 FFFF 2225          cmp.l     #-1,D2
080016A6  FFFF      
080016A8  660E      2226          bne.s     vsscanf_175
080016AA  4A84      2227          tst.l     D4
080016AC  6704      2228          beq.s     vsscanf_177
080016AE  2004      2229          move.l    D4,D0
080016B0  6002      2230          bra.s     vsscanf_178
                    2231   vsscanf_177:
080016B2  70FF      2232          moveq     #-1,D0
                    2233   vsscanf_178:
080016B4  6000 005A 2234          bra       vsscanf_15
                    2235   vsscanf_175:
080016B8  52AE FFE0 2236          addq.l    #1,-32(A6)
080016BC  B483      2237          cmp.l     D3,D2
080016BE  6712      2238          beq.s     vsscanf_179
080016C0  2F02      2239          move.l    D2,-(A7)
080016C2  2F05      2240          move.l    D5,-(A7)
080016C4  4E95      2241          jsr       (A5)
080016C6  504F      2242          addq.w    #8,A7
080016C8  53AE FFE0 2243          subq.l    #1,-32(A6)
080016CC  2004      2244          move.l    D4,D0
080016CE  6000 0040 2245          bra       vsscanf_15
                    2246   vsscanf_179:
080016D2  6000 0036 2247          bra       vsscanf_185
                    2248   vsscanf_173:
080016D6  2F05      2249          move.l    D5,-(A7)
080016D8  4E92      2250          jsr       (A2)
080016DA  584F      2251          addq.w    #4,A7
080016DC  2400      2252          move.l    D0,D2
080016DE  52AE FFE0 2253          addq.l    #1,-32(A6)
080016E2  0C82 FFFF 2254          cmp.l     #-1,D2
080016E6  FFFF      
080016E8  660C      2255          bne.s     vsscanf_181
080016EA  4A84      2256          tst.l     D4
080016EC  6704      2257          beq.s     vsscanf_183
080016EE  2004      2258          move.l    D4,D0
080016F0  6002      2259          bra.s     vsscanf_184
                    2260   vsscanf_183:
080016F2  70FF      2261          moveq     #-1,D0
                    2262   vsscanf_184:
080016F4  601A      2263          bra.s     vsscanf_15
                    2264   vsscanf_181:
080016F6  B483      2265          cmp.l     D3,D2
080016F8  6710      2266          beq.s     vsscanf_185
080016FA  2F02      2267          move.l    D2,-(A7)
080016FC  2F05      2268          move.l    D5,-(A7)
080016FE  4E95      2269          jsr       (A5)
08001700  504F      2270          addq.w    #8,A7
08001702  53AE FFE0 2271          subq.l    #1,-32(A6)
08001706  2004      2272          move.l    D4,D0
08001708  6006      2273          bra.s     vsscanf_15
                    2274   vsscanf_185:
0800170A  6000 F810 2275          bra       vsscanf_3
                    2276   vsscanf_5:
0800170E  2004      2277          move.l    D4,D0
                    2278   vsscanf_15:
08001710  4CDF 3CFC 2279          movem.l   (A7)+,D2/D3/D4/D5/D6/D7/A2/A3/A4/A5
08001714  4E5E      2280          unlk      A6
08001716  4E75      2281          rts
                    2282   _printf:
08001718  4E56 FFFC 2283          link      A6,#-4
0800171C  48E7 2000 2284          movem.l   D2,-(A7)
08001720  41EE 0008 2285          lea       8(A6),A0
08001724  5848      2286          addq.w    #4,A0
08001726  2408      2287          move.l    A0,D2
08001728  2F02      2288          move.l    D2,-(A7)
0800172A  2F2E 0008 2289          move.l    8(A6),-(A7)
0800172E  42A7      2290          clr.l     -(A7)
08001730  6100 0ABC 2291          bsr       _vsprintf
08001734  DEFC 000C 2292          add.w     #12,A7
08001738  2D40 FFFC 2293          move.l    D0,-4(A6)
0800173C  4282      2294          clr.l     D2
0800173E  202E FFFC 2295          move.l    -4(A6),D0
08001742  4CDF 0004 2296          movem.l   (A7)+,D2
08001746  4E5E      2297          unlk      A6
08001748  4E75      2298          rts
                    2299   _strtod:
0800174A  4E56 FF98 2300          link      A6,#-104
0800174E  48E7 3F3C 2301          movem.l   D2/D3/D4/D5/D6/D7/A2/A3/A4/A5,-(A7)
08001752  262E 0008 2302          move.l    8(A6),D3
08001756  45EE FF9C 2303          lea       -100(A6),A2
0800175A  47EE FFD0 2304          lea       -48(A6),A3
0800175E  49EE FFA8 2305          lea       -88(A6),A4
08001762  4BF9 0800 2306          lea       __ctype,A5
08001766  2DFE      
08001768  42AE FFF8 2307          clr.l     -8(A6)
0800176C  42AE FFFC 2308          clr.l     -4(A6)
08001770  4287      2309          clr.l     D7
08001772  4285      2310          clr.l     D5
                    2311   strtod_4:
08001774  2043      2312          move.l    D3,A0
08001776  1010      2313          move.b    (A0),D0
08001778  4880      2314          ext.w     D0
0800177A  3040      2315          move.w    D0,A0
0800177C  1030 D801 2316          move.b    1(A0,A5.L),D0
08001780  0200 0010 2317          andi.b    #16,D0
08001784  6704      2318          beq.s     strtod_6
08001786  5283      2319          addq.l    #1,D3
08001788  60EA      2320          bra       strtod_4
                    2321   strtod_6:
0800178A  2043      2322          move.l    D3,A0
0800178C  1010      2323          move.b    (A0),D0
0800178E  4880      2324          ext.w     D0
08001790  48C0      2325          ext.l     D0
08001792  0C80 0000 2326          cmp.l     #45,D0
08001796  002D      
08001798  660C      2327          bne.s     strtod_7
0800179A  2D7C 0000 2328          move.l    #1,-4(A6)
0800179E  0001 FFFC 
080017A2  5283      2329          addq.l    #1,D3
080017A4  6012      2330          bra.s     strtod_9
                    2331   strtod_7:
080017A6  2043      2332          move.l    D3,A0
080017A8  1010      2333          move.b    (A0),D0
080017AA  4880      2334          ext.w     D0
080017AC  48C0      2335          ext.l     D0
080017AE  0C80 0000 2336          cmp.l     #43,D0
080017B2  002B      
080017B4  6602      2337          bne.s     strtod_9
080017B6  5283      2338          addq.l    #1,D3
                    2339   strtod_9:
080017B8  2043      2340          move.l    D3,A0
080017BA  1010      2341          move.b    (A0),D0
080017BC  4880      2342          ext.w     D0
080017BE  48C0      2343          ext.l     D0
080017C0  0C80 0000 2344          cmp.l     #78,D0
080017C4  004E      
080017C6  6600 0044 2345          bne       strtod_11
080017CA  2043      2346          move.l    D3,A0
080017CC  1028 0001 2347          move.b    1(A0),D0
080017D0  4880      2348          ext.w     D0
080017D2  48C0      2349          ext.l     D0
080017D4  0C80 0000 2350          cmp.l     #65,D0
080017D8  0041      
080017DA  6630      2351          bne.s     strtod_11
080017DC  2043      2352          move.l    D3,A0
080017DE  1028 0002 2353          move.b    2(A0),D0
080017E2  4880      2354          ext.w     D0
080017E4  48C0      2355          ext.l     D0
080017E6  0C80 0000 2356          cmp.l     #78,D0
080017EA  004E      
080017EC  661E      2357          bne.s     strtod_11
080017EE  4282      2358          clr.l     D2
                    2359   strtod_13:
080017F0  0C82 0000 2360          cmp.l     #12,D2
080017F4  000C      
080017F6  6C10      2361          bge.s     strtod_15
080017F8  41F9 0800 2362          lea       strtod_nan,A0
080017FC  2DE6      
080017FE  15B0 2800 2363          move.b    0(A0,D2.L),0(A2,D2.L)
08001802  2800      
08001804  5282      2364          addq.l    #1,D2
08001806  60E8      2365          bra       strtod_13
                    2366   strtod_15:
08001808  6000 031A 2367          bra       strtod_3
                    2368   strtod_11:
0800180C  2043      2369          move.l    D3,A0
0800180E  1010      2370          move.b    (A0),D0
08001810  4880      2371          ext.w     D0
08001812  48C0      2372          ext.l     D0
08001814  0C80 0000 2373          cmp.l     #73,D0
08001818  0049      
0800181A  6600 0044 2374          bne       strtod_16
0800181E  2043      2375          move.l    D3,A0
08001820  1028 0001 2376          move.b    1(A0),D0
08001824  4880      2377          ext.w     D0
08001826  48C0      2378          ext.l     D0
08001828  0C80 0000 2379          cmp.l     #78,D0
0800182C  004E      
0800182E  6630      2380          bne.s     strtod_16
08001830  2043      2381          move.l    D3,A0
08001832  1028 0002 2382          move.b    2(A0),D0
08001836  4880      2383          ext.w     D0
08001838  48C0      2384          ext.l     D0
0800183A  0C80 0000 2385          cmp.l     #70,D0
0800183E  0046      
08001840  661E      2386          bne.s     strtod_16
08001842  4282      2387          clr.l     D2
                    2388   strtod_18:
08001844  0C82 0000 2389          cmp.l     #12,D2
08001848  000C      
0800184A  6C10      2390          bge.s     strtod_20
0800184C  41F9 0800 2391          lea       strtod_inf,A0
08001850  2DF2      
08001852  15B0 2800 2392          move.b    0(A0,D2.L),0(A2,D2.L)
08001856  2800      
08001858  5282      2393          addq.l    #1,D2
0800185A  60E8      2394          bra       strtod_18
                    2395   strtod_20:
0800185C  6000 02C6 2396          bra       strtod_3
                    2397   strtod_16:
08001860  4286      2398          clr.l     D6
                    2399   strtod_21:
08001862  2043      2400          move.l    D3,A0
08001864  1010      2401          move.b    (A0),D0
08001866  4880      2402          ext.w     D0
08001868  3040      2403          move.w    D0,A0
0800186A  1030 D801 2404          move.b    1(A0,A5.L),D0
0800186E  0200 0004 2405          andi.b    #4,D0
08001872  672C      2406          beq.s     strtod_23
08001874  4AAE FFF8 2407          tst.l     -8(A6)
08001878  6610      2408          bne.s     strtod_26
0800187A  2043      2409          move.l    D3,A0
0800187C  1010      2410          move.b    (A0),D0
0800187E  4880      2411          ext.w     D0
08001880  48C0      2412          ext.l     D0
08001882  0C80 0000 2413          cmp.l     #48,D0
08001886  0030      
08001888  6712      2414          beq.s     strtod_24
                    2415   strtod_26:
0800188A  2043      2416          move.l    D3,A0
0800188C  2006      2417          move.l    D6,D0
0800188E  5286      2418          addq.l    #1,D6
08001890  1990 0800 2419          move.b    (A0),0(A4,D0.L)
08001894  2D7C 0000 2420          move.l    #1,-8(A6)
08001898  0001 FFF8 
                    2421   strtod_24:
0800189C  5283      2422          addq.l    #1,D3
0800189E  60C2      2423          bra       strtod_21
                    2424   strtod_23:
080018A0  4234 6800 2425          clr.b     0(A4,D6.L)
080018A4  4282      2426          clr.l     D2
080018A6  2043      2427          move.l    D3,A0
080018A8  1010      2428          move.b    (A0),D0
080018AA  4880      2429          ext.w     D0
080018AC  48C0      2430          ext.l     D0
080018AE  0C80 0000 2431          cmp.l     #46,D0
080018B2  002E      
080018B4  6622      2432          bne.s     strtod_31
080018B6  5283      2433          addq.l    #1,D3
                    2434   strtod_29:
080018B8  2043      2435          move.l    D3,A0
080018BA  1010      2436          move.b    (A0),D0
080018BC  4880      2437          ext.w     D0
080018BE  3040      2438          move.w    D0,A0
080018C0  1030 D801 2439          move.b    1(A0,A5.L),D0
080018C4  0200 0004 2440          andi.b    #4,D0
080018C8  670E      2441          beq.s     strtod_31
080018CA  2043      2442          move.l    D3,A0
080018CC  5283      2443          addq.l    #1,D3
080018CE  2002      2444          move.l    D2,D0
080018D0  5282      2445          addq.l    #1,D2
080018D2  1790 0800 2446          move.b    (A0),0(A3,D0.L)
080018D6  60E0      2447          bra       strtod_29
                    2448   strtod_31:
080018D8  4233 2800 2449          clr.b     0(A3,D2.L)
080018DC  2043      2450          move.l    D3,A0
080018DE  1010      2451          move.b    (A0),D0
080018E0  4880      2452          ext.w     D0
080018E2  48C0      2453          ext.l     D0
080018E4  0C80 0000 2454          cmp.l     #101,D0
080018E8  0065      
080018EA  6712      2455          beq.s     strtod_34
080018EC  2043      2456          move.l    D3,A0
080018EE  1010      2457          move.b    (A0),D0
080018F0  4880      2458          ext.w     D0
080018F2  48C0      2459          ext.l     D0
080018F4  0C80 0000 2460          cmp.l     #69,D0
080018F8  0045      
080018FA  6600 0068 2461          bne       strtod_41
                    2462   strtod_34:
080018FE  5283      2463          addq.l    #1,D3
08001900  2043      2464          move.l    D3,A0
08001902  1010      2465          move.b    (A0),D0
08001904  4880      2466          ext.w     D0
08001906  48C0      2467          ext.l     D0
08001908  0C80 0000 2468          cmp.l     #43,D0
0800190C  002B      
0800190E  6606      2469          bne.s     strtod_35
08001910  4287      2470          clr.l     D7
08001912  5283      2471          addq.l    #1,D3
08001914  6018      2472          bra.s     strtod_38
                    2473   strtod_35:
08001916  2043      2474          move.l    D3,A0
08001918  1010      2475          move.b    (A0),D0
0800191A  4880      2476          ext.w     D0
0800191C  48C0      2477          ext.l     D0
0800191E  0C80 0000 2478          cmp.l     #45,D0
08001922  002D      
08001924  6606      2479          bne.s     strtod_37
08001926  7E01      2480          moveq     #1,D7
08001928  5283      2481          addq.l    #1,D3
0800192A  6002      2482          bra.s     strtod_38
                    2483   strtod_37:
0800192C  4287      2484          clr.l     D7
                    2485   strtod_38:
0800192E  2043      2486          move.l    D3,A0
08001930  1010      2487          move.b    (A0),D0
08001932  4880      2488          ext.w     D0
08001934  3040      2489          move.w    D0,A0
08001936  1030 D801 2490          move.b    1(A0,A5.L),D0
0800193A  0200 0004 2491          andi.b    #4,D0
0800193E  6724      2492          beq.s     strtod_41
08001940  2F05      2493          move.l    D5,-(A7)
08001942  4878 000A 2494          pea       10
08001946  6100 F270 2495          bsr       LMUL
0800194A  2017      2496          move.l    (A7),D0
0800194C  504F      2497          addq.w    #8,A7
0800194E  2043      2498          move.l    D3,A0
08001950  5283      2499          addq.l    #1,D3
08001952  1210      2500          move.b    (A0),D1
08001954  4881      2501          ext.w     D1
08001956  48C1      2502          ext.l     D1
08001958  D081      2503          add.l     D1,D0
0800195A  0480 0000 2504          sub.l     #48,D0
0800195E  0030      
08001960  2A00      2505          move.l    D0,D5
08001962  60CA      2506          bra       strtod_38
                    2507   strtod_41:
08001964  4A87      2508          tst.l     D7
08001966  6706      2509          beq.s     strtod_42
08001968  2005      2510          move.l    D5,D0
0800196A  4480      2511          neg.l     D0
0800196C  2A00      2512          move.l    D0,D5
                    2513   strtod_42:
0800196E  4AAE 000C 2514          tst.l     12(A6)
08001972  6706      2515          beq.s     strtod_44
08001974  206E 000C 2516          move.l    12(A6),A0
08001978  2083      2517          move.l    D3,(A0)
                    2518   strtod_44:
0800197A  4282      2519          clr.l     D2
                    2520   strtod_46:
0800197C  0C82 0000 2521          cmp.l     #12,D2
08001980  000C      
08001982  6C08      2522          bge.s     strtod_48
08001984  4232 2800 2523          clr.b     0(A2,D2.L)
08001988  5282      2524          addq.l    #1,D2
0800198A  60F0      2525          bra       strtod_46
                    2526   strtod_48:
0800198C  4A86      2527          tst.l     D6
0800198E  6700 00C2 2528          beq       strtod_49
08001992  2006      2529          move.l    D6,D0
08001994  5380      2530          subq.l    #1,D0
08001996  DA80      2531          add.l     D0,D5
08001998  7807      2532          moveq     #7,D4
0800199A  4282      2533          clr.l     D2
                    2534   strtod_51:
0800199C  4A34 2800 2535          tst.b     0(A4,D2.L)
080019A0  6700 0052 2536          beq       strtod_53
080019A4  0C84 0000 2537          cmp.l     #24,D4
080019A8  0018      
080019AA  6C00 0048 2538          bge       strtod_53
080019AE  2004      2539          move.l    D4,D0
080019B0  0280 0000 2540          andi.l    #1,D0
080019B4  0001      
080019B6  671E      2541          beq.s     strtod_54
080019B8  2004      2542          move.l    D4,D0
080019BA  E280      2543          asr.l     #1,D0
080019BC  1234 2800 2544          move.b    0(A4,D2.L),D1
080019C0  4881      2545          ext.w     D1
080019C2  48C1      2546          ext.l     D1
080019C4  0481 0000 2547          sub.l     #48,D1
080019C8  0030      
080019CA  0281 0000 2548          andi.l    #15,D1
080019CE  000F      
080019D0  8332 0800 2549          or.b      D1,0(A2,D0.L)
080019D4  6018      2550          bra.s     strtod_55
                    2551   strtod_54:
080019D6  2004      2552          move.l    D4,D0
080019D8  E280      2553          asr.l     #1,D0
080019DA  1234 2800 2554          move.b    0(A4,D2.L),D1
080019DE  4881      2555          ext.w     D1
080019E0  48C1      2556          ext.l     D1
080019E2  0481 0000 2557          sub.l     #48,D1
080019E6  0030      
080019E8  E981      2558          asl.l     #4,D1
080019EA  8332 0800 2559          or.b      D1,0(A2,D0.L)
                    2560   strtod_55:
080019EE  5284      2561          addq.l    #1,D4
080019F0  5282      2562          addq.l    #1,D2
080019F2  60A8      2563          bra       strtod_51
                    2564   strtod_53:
080019F4  4282      2565          clr.l     D2
                    2566   strtod_56:
080019F6  4A33 2800 2567          tst.b     0(A3,D2.L)
080019FA  6700 0052 2568          beq       strtod_58
080019FE  0C84 0000 2569          cmp.l     #24,D4
08001A02  0018      
08001A04  6C00 0048 2570          bge       strtod_58
08001A08  2004      2571          move.l    D4,D0
08001A0A  0280 0000 2572          andi.l    #1,D0
08001A0E  0001      
08001A10  671E      2573          beq.s     strtod_59
08001A12  2004      2574          move.l    D4,D0
08001A14  E280      2575          asr.l     #1,D0
08001A16  1233 2800 2576          move.b    0(A3,D2.L),D1
08001A1A  4881      2577          ext.w     D1
08001A1C  48C1      2578          ext.l     D1
08001A1E  0481 0000 2579          sub.l     #48,D1
08001A22  0030      
08001A24  0281 0000 2580          andi.l    #15,D1
08001A28  000F      
08001A2A  8332 0800 2581          or.b      D1,0(A2,D0.L)
08001A2E  6018      2582          bra.s     strtod_60
                    2583   strtod_59:
08001A30  2004      2584          move.l    D4,D0
08001A32  E280      2585          asr.l     #1,D0
08001A34  1233 2800 2586          move.b    0(A3,D2.L),D1
08001A38  4881      2587          ext.w     D1
08001A3A  48C1      2588          ext.l     D1
08001A3C  0481 0000 2589          sub.l     #48,D1
08001A40  0030      
08001A42  E981      2590          asl.l     #4,D1
08001A44  8332 0800 2591          or.b      D1,0(A2,D0.L)
                    2592   strtod_60:
08001A48  5284      2593          addq.l    #1,D4
08001A4A  5282      2594          addq.l    #1,D2
08001A4C  60A8      2595          bra       strtod_56
                    2596   strtod_58:
08001A4E  6000 0076 2597          bra       strtod_66
                    2598   strtod_49:
08001A52  5385      2599          subq.l    #1,D5
08001A54  4282      2600          clr.l     D2
                    2601   strtod_61:
08001A56  1033 2800 2602          move.b    0(A3,D2.L),D0
08001A5A  4880      2603          ext.w     D0
08001A5C  48C0      2604          ext.l     D0
08001A5E  0C80 0000 2605          cmp.l     #48,D0
08001A62  0030      
08001A64  6606      2606          bne.s     strtod_63
08001A66  5385      2607          subq.l    #1,D5
08001A68  5282      2608          addq.l    #1,D2
08001A6A  60EA      2609          bra       strtod_61
                    2610   strtod_63:
08001A6C  7807      2611          moveq     #7,D4
                    2612   strtod_64:
08001A6E  4A33 2800 2613          tst.b     0(A3,D2.L)
08001A72  6700 0052 2614          beq       strtod_66
08001A76  0C84 0000 2615          cmp.l     #24,D4
08001A7A  0018      
08001A7C  6C00 0048 2616          bge       strtod_66
08001A80  2004      2617          move.l    D4,D0
08001A82  0280 0000 2618          andi.l    #1,D0
08001A86  0001      
08001A88  671E      2619          beq.s     strtod_67
08001A8A  2004      2620          move.l    D4,D0
08001A8C  E280      2621          asr.l     #1,D0
08001A8E  1233 2800 2622          move.b    0(A3,D2.L),D1
08001A92  4881      2623          ext.w     D1
08001A94  48C1      2624          ext.l     D1
08001A96  0481 0000 2625          sub.l     #48,D1
08001A9A  0030      
08001A9C  0281 0000 2626          andi.l    #15,D1
08001AA0  000F      
08001AA2  8332 0800 2627          or.b      D1,0(A2,D0.L)
08001AA6  6018      2628          bra.s     strtod_68
                    2629   strtod_67:
08001AA8  2004      2630          move.l    D4,D0
08001AAA  E280      2631          asr.l     #1,D0
08001AAC  1233 2800 2632          move.b    0(A3,D2.L),D1
08001AB0  4881      2633          ext.w     D1
08001AB2  48C1      2634          ext.l     D1
08001AB4  0481 0000 2635          sub.l     #48,D1
08001AB8  0030      
08001ABA  E981      2636          asl.l     #4,D1
08001ABC  8332 0800 2637          or.b      D1,0(A2,D0.L)
                    2638   strtod_68:
08001AC0  5284      2639          addq.l    #1,D4
08001AC2  5282      2640          addq.l    #1,D2
08001AC4  60A8      2641          bra       strtod_64
                    2642   strtod_66:
08001AC6  0C85 0000 2643          cmp.l     #0,D5
08001ACA  0000      
08001ACC  6C0A      2644          bge.s     strtod_69
08001ACE  0012 0040 2645          ori.b     #64,(A2)
08001AD2  2005      2646          move.l    D5,D0
08001AD4  4480      2647          neg.l     D0
08001AD6  2A00      2648          move.l    D0,D5
                    2649   strtod_69:
08001AD8  2F05      2650          move.l    D5,-(A7)
08001ADA  4878 0064 2651          pea       100
08001ADE  6100 0ECE 2652          bsr       LDIV
08001AE2  2017      2653          move.l    (A7),D0
08001AE4  504F      2654          addq.w    #8,A7
08001AE6  0280 0000 2655          andi.l    #15,D0
08001AEA  000F      
08001AEC  8112      2656          or.b      D0,(A2)
08001AEE  2F05      2657          move.l    D5,-(A7)
08001AF0  4878 0064 2658          pea       100
08001AF4  6100 0EB8 2659          bsr       LDIV
08001AF8  202F 0004 2660          move.l    4(A7),D0
08001AFC  504F      2661          addq.w    #8,A7
08001AFE  2F00      2662          move.l    D0,-(A7)
08001B00  4878 000A 2663          pea       10
08001B04  6100 0EA8 2664          bsr       LDIV
08001B08  2017      2665          move.l    (A7),D0
08001B0A  504F      2666          addq.w    #8,A7
08001B0C  E980      2667          asl.l     #4,D0
08001B0E  2F05      2668          move.l    D5,-(A7)
08001B10  4878 000A 2669          pea       10
08001B14  6100 0E98 2670          bsr       LDIV
08001B18  222F 0004 2671          move.l    4(A7),D1
08001B1C  504F      2672          addq.w    #8,A7
08001B1E  8081      2673          or.l      D1,D0
08001B20  1540 0001 2674          move.b    D0,1(A2)
                    2675   strtod_3:
08001B24  4AAE FFFC 2676          tst.l     -4(A6)
08001B28  6704      2677          beq.s     strtod_71
08001B2A  0012 0080 2678          ori.b     #128,(A2)
                    2679   strtod_71:
08001B2E  2F0A      2680          move.l    A2,-(A7)
08001B30  6100 0F48 2681          bsr       _pack
08001B34  584F      2682          addq.w    #4,A7
08001B36  4CDF 3CFC 2683          movem.l   (A7)+,D2/D3/D4/D5/D6/D7/A2/A3/A4/A5
08001B3A  4E5E      2684          unlk      A6
08001B3C  4E75      2685          rts
                    2686   _atof:
08001B3E  4E56 0000 2687          link      A6,#0
08001B42  42A7      2688          clr.l     -(A7)
08001B44  2F2E 0008 2689          move.l    8(A6),-(A7)
08001B48  6100 FC00 2690          bsr       _strtod
08001B4C  504F      2691          addq.w    #8,A7
08001B4E  4E5E      2692          unlk      A6
08001B50  4E75      2693          rts
                    2694   _gets:
08001B52  4E56 0000 2695          link      A6,#0
08001B56  48E7 3820 2696          movem.l   D2/D3/D4/A2,-(A7)
08001B5A  45F9 0800 2697          lea       _putch,A2
08001B5E  2A84      
08001B60  282E 0008 2698          move.l    8(A6),D4
08001B64  2404      2699          move.l    D4,D2
                    2700   gets_1:
08001B66  6100 0F4C 2701          bsr       _getch
08001B6A  2600      2702          move.l    D0,D3
08001B6C  0C80 0000 2703          cmp.l     #10,D0
08001B70  000A      
08001B72  6700 003C 2704          beq       gets_3
08001B76  0C83 0000 2705          cmp.l     #8,D3
08001B7A  0008      
08001B7C  6712      2706          beq.s     gets_4
08001B7E  2042      2707          move.l    D2,A0
08001B80  5282      2708          addq.l    #1,D2
08001B82  1083      2709          move.b    D3,(A0)
08001B84  4883      2710          ext.w     D3
08001B86  48C3      2711          ext.l     D3
08001B88  2F03      2712          move.l    D3,-(A7)
08001B8A  4E92      2713          jsr       (A2)
08001B8C  584F      2714          addq.w    #4,A7
08001B8E  601E      2715          bra.s     gets_6
                    2716   gets_4:
08001B90  B484      2717          cmp.l     D4,D2
08001B92  631A      2718          bls.s     gets_6
08001B94  4878 0008 2719          pea       8
08001B98  4E92      2720          jsr       (A2)
08001B9A  584F      2721          addq.w    #4,A7
08001B9C  4878 0020 2722          pea       32
08001BA0  4E92      2723          jsr       (A2)
08001BA2  584F      2724          addq.w    #4,A7
08001BA4  4878 0008 2725          pea       8
08001BA8  4E92      2726          jsr       (A2)
08001BAA  584F      2727          addq.w    #4,A7
08001BAC  5382      2728          subq.l    #1,D2
                    2729   gets_6:
08001BAE  60B6      2730          bra       gets_1
                    2731   gets_3:
08001BB0  4878 000A 2732          pea       10
08001BB4  4E92      2733          jsr       (A2)
08001BB6  584F      2734          addq.w    #4,A7
08001BB8  2042      2735          move.l    D2,A0
08001BBA  4210      2736          clr.b     (A0)
08001BBC  2004      2737          move.l    D4,D0
08001BBE  4CDF 041C 2738          movem.l   (A7)+,D2/D3/D4/A2
08001BC2  4E5E      2739          unlk      A6
08001BC4  4E75      2740          rts
                    2741   _tolower:
08001BC6  4E56 0000 2742          link      A6,#0
08001BCA  48E7 2000 2743          movem.l   D2,-(A7)
08001BCE  242E 0008 2744          move.l    8(A6),D2
08001BD2  0C82 0000 2745          cmp.l     #65,D2
08001BD6  0041      
08001BD8  6D0E      2746          blt.s     tolower_1
08001BDA  0C82 0000 2747          cmp.l     #90,D2
08001BDE  005A      
08001BE0  6E06      2748          bgt.s     tolower_1
08001BE2  0082 0000 2749          ori.l     #32,D2
08001BE6  0020      
                    2750   tolower_1:
08001BE8  2002      2751          move.l    D2,D0
08001BEA  4CDF 0004 2752          movem.l   (A7)+,D2
08001BEE  4E5E      2753          unlk      A6
08001BF0  4E75      2754          rts
                    2755   _strcat:
08001BF2  206F 0004 2756          move.l    (4,A7),A0	
08001BF6  226F 0008 2757          move.l    (8,A7),A1	
08001BFA  2008      2758          move.l    A0,D0		
                    2759   strcat_0:
08001BFC  4A18      2760          tst.b     (A0)+
08001BFE  66FC      2761          bne       strcat_0
08001C00  5348      2762          subq      #1,A0
                    2763   strcat_1:
08001C02  10D9      2764          move.b    (A1)+,(A0)+
08001C04  66FC      2765          bne       strcat_1
08001C06  4E75      2766          rts
                    2767   _toupper:
08001C08  4E56 0000 2768          link      A6,#0
08001C0C  48E7 2000 2769          movem.l   D2,-(A7)
08001C10  242E 0008 2770          move.l    8(A6),D2
08001C14  0C82 0000 2771          cmp.l     #97,D2
08001C18  0061      
08001C1A  6D0E      2772          blt.s     toupper_1
08001C1C  0C82 0000 2773          cmp.l     #122,D2
08001C20  007A      
08001C22  6E06      2774          bgt.s     toupper_1
08001C24  0282 0000 2775          andi.l    #95,D2
08001C28  005F      
                    2776   toupper_1:
08001C2A  2002      2777          move.l    D2,D0
08001C2C  4CDF 0004 2778          movem.l   (A7)+,D2
08001C30  4E5E      2779          unlk      A6
08001C32  4E75      2780          rts
                    2781   _ungetch:
08001C34  4E56 0000 2782          link      A6,#0
08001C38  23EE 0008 2783          move.l    8(A6),__ungetbuf
08001C3C  0800 2DD4 
08001C40  202E 0008 2784          move.l    8(A6),D0
08001C44  4E5E      2785          unlk      A6
08001C46  4E75      2786          rts
                    2787   @vsprintf_copy:
08001C48  4E56 0000 2788          link      A6,#0
08001C4C  206E 0008 2789          move.l    8(A6),A0
08001C50  4A90      2790          tst.l     (A0)
08001C52  6710      2791          beq.s     @vsprintf_copy_1
08001C54  202E 000C 2792          move.l    12(A6),D0
08001C58  206E 0008 2793          move.l    8(A6),A0
08001C5C  2250      2794          move.l    (A0),A1
08001C5E  5290      2795          addq.l    #1,(A0)
08001C60  1280      2796          move.b    D0,(A1)
08001C62  600A      2797          bra.s     @vsprintf_copy_2
                    2798   @vsprintf_copy_1:
08001C64  2F2E 000C 2799          move.l    12(A6),-(A7)
08001C68  6100 0E1A 2800          bsr       _putch
08001C6C  584F      2801          addq.w    #4,A7
                    2802   @vsprintf_copy_2:
08001C6E  4E5E      2803          unlk      A6
08001C70  4E75      2804          rts
                    2805   @vsprintf_getval:
08001C72  4E56 0000 2806          link      A6,#0
08001C76  48E7 3000 2807          movem.l   D2/D3,-(A7)
08001C7A  242E 0008 2808          move.l    8(A6),D2
08001C7E  4283      2809          clr.l     D3
08001C80  2042      2810          move.l    D2,A0
08001C82  2050      2811          move.l    (A0),A0
08001C84  1010      2812          move.b    (A0),D0
08001C86  4880      2813          ext.w     D0
08001C88  48C0      2814          ext.l     D0
08001C8A  0C80 0000 2815          cmp.l     #42,D0
08001C8E  002A      
08001C90  6612      2816          bne.s     @vsprintf_getval_1
08001C92  206E 000C 2817          move.l    12(A6),A0
08001C96  2250      2818          move.l    (A0),A1
08001C98  5890      2819          addq.l    #4,(A0)
08001C9A  2611      2820          move.l    (A1),D3
08001C9C  2042      2821          move.l    D2,A0
08001C9E  5290      2822          addq.l    #1,(A0)
08001CA0  6000 004E 2823          bra       @vsprintf_getval_5
                    2824   @vsprintf_getval_1:
08001CA4  2042      2825          move.l    D2,A0
08001CA6  2050      2826          move.l    (A0),A0
08001CA8  1010      2827          move.b    (A0),D0
08001CAA  4880      2828          ext.w     D0
08001CAC  48C0      2829          ext.l     D0
08001CAE  0C80 0000 2830          cmp.l     #48,D0
08001CB2  0030      
08001CB4  6D00 003A 2831          blt       @vsprintf_getval_5
08001CB8  2042      2832          move.l    D2,A0
08001CBA  2050      2833          move.l    (A0),A0
08001CBC  1010      2834          move.b    (A0),D0
08001CBE  4880      2835          ext.w     D0
08001CC0  48C0      2836          ext.l     D0
08001CC2  0C80 0000 2837          cmp.l     #57,D0
08001CC6  0039      
08001CC8  6E26      2838          bgt.s     @vsprintf_getval_5
08001CCA  2F03      2839          move.l    D3,-(A7)
08001CCC  4878 000A 2840          pea       10
08001CD0  6100 EEE6 2841          bsr       LMUL
08001CD4  2017      2842          move.l    (A7),D0
08001CD6  504F      2843          addq.w    #8,A7
08001CD8  2042      2844          move.l    D2,A0
08001CDA  2250      2845          move.l    (A0),A1
08001CDC  5290      2846          addq.l    #1,(A0)
08001CDE  1211      2847          move.b    (A1),D1
08001CE0  4881      2848          ext.w     D1
08001CE2  48C1      2849          ext.l     D1
08001CE4  D081      2850          add.l     D1,D0
08001CE6  0480 0000 2851          sub.l     #48,D0
08001CEA  0030      
08001CEC  2600      2852          move.l    D0,D3
08001CEE  60B4      2853          bra       @vsprintf_getval_1
                    2854   @vsprintf_getval_5:
08001CF0  2003      2855          move.l    D3,D0
08001CF2  4CDF 000C 2856          movem.l   (A7)+,D2/D3
08001CF6  4E5E      2857          unlk      A6
08001CF8  4E75      2858          rts
                    2859   @vsprintf_fround:
08001CFA  4E56 FFF8 2860          link      A6,#-8
08001CFE  48E7 3C00 2861          movem.l   D2/D3/D4/D5,-(A7)
08001D02  2A2E 000C 2862          move.l    12(A6),D5
08001D06  202E 0008 2863          move.l    8(A6),D0
08001D0A  D085      2864          add.l     D5,D0
08001D0C  5280      2865          addq.l    #1,D0
08001D0E  2400      2866          move.l    D0,D2
08001D10  2D40 FFF8 2867          move.l    D0,-8(A6)
08001D14  2042      2868          move.l    D2,A0
08001D16  1010      2869          move.b    (A0),D0
08001D18  4880      2870          ext.w     D0
08001D1A  48C0      2871          ext.l     D0
08001D1C  0C80 0000 2872          cmp.l     #48,D0
08001D20  0030      
08001D22  6D00 0094 2873          blt       @vsprintf_fround_15
08001D26  2042      2874          move.l    D2,A0
08001D28  1010      2875          move.b    (A0),D0
08001D2A  4880      2876          ext.w     D0
08001D2C  48C0      2877          ext.l     D0
08001D2E  0C80 0000 2878          cmp.l     #57,D0
08001D32  0039      
08001D34  6E00 0082 2879          bgt       @vsprintf_fround_15
08001D38  2042      2880          move.l    D2,A0
08001D3A  5382      2881          subq.l    #1,D2
08001D3C  1010      2882          move.b    (A0),D0
08001D3E  4880      2883          ext.w     D0
08001D40  48C0      2884          ext.l     D0
08001D42  0C80 0000 2885          cmp.l     #52,D0
08001D46  0034      
08001D48  6F00 006E 2886          ble       @vsprintf_fround_15
                    2887   @vsprintf_fround_5:
08001D4C  2042      2888          move.l    D2,A0
08001D4E  5210      2889          addq.b    #1,(A0)
08001D50  1010      2890          move.b    (A0),D0
08001D52  4880      2891          ext.w     D0
08001D54  3040      2892          move.w    D0,A0
08001D56  2008      2893          move.l    A0,D0
08001D58  0C80 0000 2894          cmp.l     #57,D0
08001D5C  0039      
08001D5E  6F0A      2895          ble.s     @vsprintf_fround_7
08001D60  2042      2896          move.l    D2,A0
08001D62  5382      2897          subq.l    #1,D2
08001D64  10BC 0030 2898          move.b    #48,(A0)
08001D68  60E2      2899          bra       @vsprintf_fround_5
                    2900   @vsprintf_fround_7:
08001D6A  2042      2901          move.l    D2,A0
08001D6C  1010      2902          move.b    (A0),D0
08001D6E  4880      2903          ext.w     D0
08001D70  48C0      2904          ext.l     D0
08001D72  0C80 0000 2905          cmp.l     #47,D0
08001D76  002F      
08001D78  6600 003E 2906          bne       @vsprintf_fround_15
08001D7C  2042      2907          move.l    D2,A0
08001D7E  5282      2908          addq.l    #1,D2
08001D80  10BC 0031 2909          move.b    #49,(A0)
08001D84  4A85      2910          tst.l     D5
08001D86  6606      2911          bne.s     @vsprintf_fround_12
08001D88  4AAE 0010 2912          tst.l     16(A6)
08001D8C  6708      2913          beq.s     @vsprintf_fround_10
                    2914   @vsprintf_fround_12:
08001D8E  2042      2915          move.l    D2,A0
08001D90  5282      2916          addq.l    #1,D2
08001D92  10BC 002E 2917          move.b    #46,(A0)
                    2918   @vsprintf_fround_10:
08001D96  4284      2919          clr.l     D4
08001D98  7630      2920          moveq     #48,D3
                    2921   @vsprintf_fround_13:
08001D9A  B885      2922          cmp.l     D5,D4
08001D9C  6C1A      2923          bge.s     @vsprintf_fround_15
08001D9E  2042      2924          move.l    D2,A0
08001DA0  1010      2925          move.b    (A0),D0
08001DA2  4880      2926          ext.w     D0
08001DA4  48C0      2927          ext.l     D0
08001DA6  2D40 FFFC 2928          move.l    D0,-4(A6)
08001DAA  2042      2929          move.l    D2,A0
08001DAC  5282      2930          addq.l    #1,D2
08001DAE  1083      2931          move.b    D3,(A0)
08001DB0  262E FFFC 2932          move.l    -4(A6),D3
08001DB4  5284      2933          addq.l    #1,D4
08001DB6  60E2      2934          bra       @vsprintf_fround_13
                    2935   @vsprintf_fround_15:
08001DB8  202E FFF8 2936          move.l    -8(A6),D0
08001DBC  4CDF 003C 2937          movem.l   (A7)+,D2/D3/D4/D5
08001DC0  4E5E      2938          unlk      A6
08001DC2  4E75      2939          rts
                    2940   @vsprintf_fconv:
08001DC4  4E56 FFFC 2941          link      A6,#-4
08001DC8  48E7 3F3C 2942          movem.l   D2/D3/D4/D5/D6/D7/A2/A3/A4/A5,-(A7)
08001DCC  2A2E 0014 2943          move.l    20(A6),D5
08001DD0  246E 0018 2944          move.l    24(A6),A2
08001DD4  266E 001C 2945          move.l    28(A6),A3
08001DD8  286E 0008 2946          move.l    8(A6),A4
08001DDC  2F0C      2947          move.l    A4,-(A7)
08001DDE  F22E 5400 2948          fmove.d   12(A6),FP0
08001DE2  000C      
08001DE4  F227 7400 2949          fmove.d   FP0,-(A7)
08001DE8  6100 0E5E 2950          bsr       _ftoa
08001DEC  DEFC 000C 2951          add.w     #12,A7
08001DF0  2600      2952          move.l    D0,D3
08001DF2  0C83 0000 2953          cmp.l     #1000,D3
08001DF6  03E8      
08001DF8  6D04      2954          blt.s     @vsprintf_fconv_2
08001DFA  6000 03EA 2955          bra       @vsprintf_fconv_98
                    2956   @vsprintf_fconv_2:
08001DFE  240C      2957          move.l    A4,D2
08001E00  1014      2958          move.b    (A4),D0
08001E02  4880      2959          ext.w     D0
08001E04  48C0      2960          ext.l     D0
08001E06  0C80 0000 2961          cmp.l     #45,D0
08001E0A  002D      
08001E0C  6602      2962          bne.s     @vsprintf_fconv_5
08001E0E  5282      2963          addq.l    #1,D2
                    2964   @vsprintf_fconv_5:
08001E10  2042      2965          move.l    D2,A0
08001E12  2242      2966          move.l    D2,A1
08001E14  1350 0001 2967          move.b    (A0),1(A1)
08001E18  2042      2968          move.l    D2,A0
08001E1A  10BC 002E 2969          move.b    #46,(A0)
08001E1E  5283      2970          addq.l    #1,D3
08001E20  0C85 0000 2971          cmp.l     #16,D5
08001E24  0010      
08001E26  6F02      2972          ble.s     @vsprintf_fconv_7
08001E28  7A10      2973          moveq     #16,D5
                    2974   @vsprintf_fconv_7:
08001E2A  2D45 FFFC 2975          move.l    D5,-4(A6)
08001E2E  0C85 FFFF 2976          cmp.l     #-1,D5
08001E32  FFFF      
08001E34  6602      2977          bne.s     @vsprintf_fconv_9
08001E36  7A06      2978          moveq     #6,D5
                    2979   @vsprintf_fconv_9:
08001E38  200B      2980          move.l    A3,D0
08001E3A  0C80 0000 2981          cmp.l     #101,D0
08001E3E  0065      
08001E40  6700 0050 2982          beq       @vsprintf_fconv_19
08001E44  6E1A      2983          bgt.s     @vsprintf_fconv_18
08001E46  0C80 0000 2984          cmp.l     #71,D0
08001E4A  0047      
08001E4C  672C      2985          beq.s     @vsprintf_fconv_13
08001E4E  6E00 0396 2986          bgt       @vsprintf_fconv_98
08001E52  0C80 0000 2987          cmp.l     #69,D0
08001E56  0045      
08001E58  6700 0038 2988          beq       @vsprintf_fconv_19
08001E5C  6000 0388 2989          bra       @vsprintf_fconv_98
                    2990   @vsprintf_fconv_18:
08001E60  0C80 0000 2991          cmp.l     #103,D0
08001E64  0067      
08001E66  6712      2992          beq.s     @vsprintf_fconv_13
08001E68  6E00 037C 2993          bgt       @vsprintf_fconv_98
08001E6C  0C80 0000 2994          cmp.l     #102,D0
08001E70  0066      
08001E72  6700 0112 2995          beq       @vsprintf_fconv_17
08001E76  6000 036E 2996          bra       @vsprintf_fconv_98
                    2997   @vsprintf_fconv_13:
08001E7A  2C05      2998          move.l    D5,D6
08001E7C  7A06      2999          moveq     #6,D5
08001E7E  0C83 FFFF 3000          cmp.l     #-4,D3
08001E82  FFFC      
08001E84  6F0C      3001          ble.s     @vsprintf_fconv_19
08001E86  7001      3002          moveq     #1,D0
08001E88  D086      3003          add.l     D6,D0
08001E8A  B680      3004          cmp.l     D0,D3
08001E8C  6E04      3005          bgt.s     @vsprintf_fconv_19
08001E8E  6000 00F6 3006          bra       @vsprintf_fconv_17
                    3007   @vsprintf_fconv_19:
08001E92  2F0A      3008          move.l    A2,-(A7)
08001E94  0C85 0000 3009          cmp.l     #15,D5
08001E98  000F      
08001E9A  6F04      3010          ble.s     @vsprintf_fconv_21
08001E9C  7210      3011          moveq     #16,D1
08001E9E  6004      3012          bra.s     @vsprintf_fconv_22
                    3013   @vsprintf_fconv_21:
08001EA0  2205      3014          move.l    D5,D1
08001EA2  5281      3015          addq.l    #1,D1
                    3016   @vsprintf_fconv_22:
08001EA4  2F01      3017          move.l    D1,-(A7)
08001EA6  2F02      3018          move.l    D2,-(A7)
08001EA8  6100 FE50 3019          bsr       @vsprintf_fround
08001EAC  DEFC 000C 3020          add.w     #12,A7
08001EB0  2E00      3021          move.l    D0,D7
08001EB2  2002      3022          move.l    D2,D0
08001EB4  5280      3023          addq.l    #1,D0
08001EB6  2800      3024          move.l    D0,D4
08001EB8  2040      3025          move.l    D0,A0
08001EBA  1010      3026          move.b    (A0),D0
08001EBC  4880      3027          ext.w     D0
08001EBE  48C0      3028          ext.l     D0
08001EC0  2C00      3029          move.l    D0,D6
08001EC2  0C80 0000 3030          cmp.l     #46,D0
08001EC6  002E      
08001EC8  671C      3031          beq.s     @vsprintf_fconv_23
08001ECA  2042      3032          move.l    D2,A0
08001ECC  1086      3033          move.b    D6,(A0)
08001ECE  4A85      3034          tst.l     D5
08001ED0  6604      3035          bne.s     @vsprintf_fconv_27
08001ED2  200A      3036          move.l    A2,D0
08001ED4  6708      3037          beq.s     @vsprintf_fconv_25
                    3038   @vsprintf_fconv_27:
08001ED6  2044      3039          move.l    D4,A0
08001ED8  10BC 002E 3040          move.b    #46,(A0)
08001EDC  6006      3041          bra.s     @vsprintf_fconv_26
                    3042   @vsprintf_fconv_25:
08001EDE  2044      3043          move.l    D4,A0
08001EE0  4210      3044          clr.b     (A0)
08001EE2  2E04      3045          move.l    D4,D7
                    3046   @vsprintf_fconv_26:
08001EE4  5383      3047          subq.l    #1,D3
                    3048   @vsprintf_fconv_23:
08001EE6  200A      3049          move.l    A2,D0
08001EE8  661E      3050          bne.s     @vsprintf_fconv_28
08001EEA  4A85      3051          tst.l     D5
08001EEC  661A      3052          bne.s     @vsprintf_fconv_28
08001EEE  2007      3053          move.l    D7,D0
08001EF0  5380      3054          subq.l    #1,D0
08001EF2  2040      3055          move.l    D0,A0
08001EF4  1010      3056          move.b    (A0),D0
08001EF6  4880      3057          ext.w     D0
08001EF8  48C0      3058          ext.l     D0
08001EFA  0C80 0000 3059          cmp.l     #46,D0
08001EFE  002E      
08001F00  6606      3060          bne.s     @vsprintf_fconv_28
08001F02  2047      3061          move.l    D7,A0
08001F04  5387      3062          subq.l    #1,D7
08001F06  4210      3063          clr.b     (A0)
                    3064   @vsprintf_fconv_28:
08001F08  70F1      3065          moveq     #-15,D0
08001F0A  2205      3066          move.l    D5,D1
08001F0C  5385      3067          subq.l    #1,D5
08001F0E  D081      3068          add.l     D1,D0
08001F10  0C80 0000 3069          cmp.l     #0,D0
08001F14  0000      
08001F16  6F0A      3070          ble.s     @vsprintf_fconv_32
08001F18  2047      3071          move.l    D7,A0
08001F1A  5287      3072          addq.l    #1,D7
08001F1C  10BC 0030 3073          move.b    #48,(A0)
08001F20  60E6      3074          bra       @vsprintf_fconv_28
                    3075   @vsprintf_fconv_32:
08001F22  200B      3076          move.l    A3,D0
08001F24  0C80 0000 3077          cmp.l     #69,D0
08001F28  0045      
08001F2A  670A      3078          beq.s     @vsprintf_fconv_35
08001F2C  200B      3079          move.l    A3,D0
08001F2E  0C80 0000 3080          cmp.l     #71,D0
08001F32  0047      
08001F34  6604      3081          bne.s     @vsprintf_fconv_33
                    3082   @vsprintf_fconv_35:
08001F36  7045      3083          moveq     #69,D0
08001F38  6002      3084          bra.s     @vsprintf_fconv_34
                    3085   @vsprintf_fconv_33:
08001F3A  7065      3086          moveq     #101,D0
                    3087   @vsprintf_fconv_34:
08001F3C  2047      3088          move.l    D7,A0
08001F3E  5287      3089          addq.l    #1,D7
08001F40  1080      3090          move.b    D0,(A0)
08001F42  0C83 0000 3091          cmp.l     #0,D3
08001F46  0000      
08001F48  6C10      3092          bge.s     @vsprintf_fconv_36
08001F4A  2003      3093          move.l    D3,D0
08001F4C  4480      3094          neg.l     D0
08001F4E  2600      3095          move.l    D0,D3
08001F50  2047      3096          move.l    D7,A0
08001F52  5287      3097          addq.l    #1,D7
08001F54  10BC 002D 3098          move.b    #45,(A0)
08001F58  6008      3099          bra.s     @vsprintf_fconv_37
                    3100   @vsprintf_fconv_36:
08001F5A  2047      3101          move.l    D7,A0
08001F5C  5287      3102          addq.l    #1,D7
08001F5E  10BC 002B 3103          move.b    #43,(A0)
                    3104   @vsprintf_fconv_37:
08001F62  0C83 0000 3105          cmp.l     #10,D3
08001F66  000A      
08001F68  6C08      3106          bge.s     @vsprintf_fconv_38
08001F6A  2047      3107          move.l    D7,A0
08001F6C  5287      3108          addq.l    #1,D7
08001F6E  10BC 0030 3109          move.b    #48,(A0)
                    3110   @vsprintf_fconv_38:
08001F72  4878 000A 3111          pea       10
08001F76  2F07      3112          move.l    D7,-(A7)
08001F78  2F03      3113          move.l    D3,-(A7)
08001F7A  6100 0BE6 3114          bsr       _ltoa
08001F7E  DEFC 000C 3115          add.w     #12,A7
08001F82  6000 0262 3116          bra       @vsprintf_fconv_98
                    3117   @vsprintf_fconv_17:
08001F86  0C83 0000 3118          cmp.l     #0,D3
08001F8A  0000      
08001F8C  6F00 00D4 3119          ble       @vsprintf_fconv_40
08001F90  2003      3120          move.l    D3,D0
08001F92  D085      3121          add.l     D5,D0
08001F94  2C00      3122          move.l    D0,D6
08001F96  0C86 0000 3123          cmp.l     #16,D6
08001F9A  0010      
08001F9C  6C0E      3124          bge.s     @vsprintf_fconv_42
08001F9E  2F0A      3125          move.l    A2,-(A7)
08001FA0  2F06      3126          move.l    D6,-(A7)
08001FA2  2F02      3127          move.l    D2,-(A7)
08001FA4  6100 FD54 3128          bsr       @vsprintf_fround
08001FA8  DEFC 000C 3129          add.w     #12,A7
                    3130   @vsprintf_fconv_42:
08001FAC  2002      3131          move.l    D2,D0
08001FAE  5280      3132          addq.l    #1,D0
08001FB0  2800      3133          move.l    D0,D4
08001FB2  2042      3134          move.l    D2,A0
08001FB4  1010      3135          move.b    (A0),D0
08001FB6  4880      3136          ext.w     D0
08001FB8  48C0      3137          ext.l     D0
08001FBA  0C80 0000 3138          cmp.l     #46,D0
08001FBE  002E      
08001FC0  670E      3139          beq.s     @vsprintf_fconv_44
08001FC2  2042      3140          move.l    D2,A0
08001FC4  2244      3141          move.l    D4,A1
08001FC6  1290      3142          move.b    (A0),(A1)
08001FC8  2042      3143          move.l    D2,A0
08001FCA  10BC 002E 3144          move.b    #46,(A0)
08001FCE  5283      3145          addq.l    #1,D3
                    3146   @vsprintf_fconv_44:
08001FD0  0C83 0000 3147          cmp.l     #16,D3
08001FD4  0010      
08001FD6  6F04      3148          ble.s     @vsprintf_fconv_46
08001FD8  7010      3149          moveq     #16,D0
08001FDA  6002      3150          bra.s     @vsprintf_fconv_47
                    3151   @vsprintf_fconv_46:
08001FDC  2003      3152          move.l    D3,D0
                    3153   @vsprintf_fconv_47:
08001FDE  2C00      3154          move.l    D0,D6
08001FE0  2003      3155          move.l    D3,D0
08001FE2  9086      3156          sub.l     D6,D0
08001FE4  2A40      3157          move.l    D0,A5
                    3158   @vsprintf_fconv_48:
08001FE6  2006      3159          move.l    D6,D0
08001FE8  5386      3160          subq.l    #1,D6
08001FEA  4A80      3161          tst.l     D0
08001FEC  670C      3162          beq.s     @vsprintf_fconv_50
08001FEE  2044      3163          move.l    D4,A0
08001FF0  5284      3164          addq.l    #1,D4
08001FF2  2242      3165          move.l    D2,A1
08001FF4  5282      3166          addq.l    #1,D2
08001FF6  1290      3167          move.b    (A0),(A1)
08001FF8  60EC      3168          bra       @vsprintf_fconv_48
                    3169   @vsprintf_fconv_50:
08001FFA  200D      3170          move.l    A5,D0
08001FFC  534D      3171          subq.w    #1,A5
08001FFE  4A80      3172          tst.l     D0
08002000  670A      3173          beq.s     @vsprintf_fconv_53
08002002  2042      3174          move.l    D2,A0
08002004  5282      3175          addq.l    #1,D2
08002006  10BC 0030 3176          move.b    #48,(A0)
0800200A  60EE      3177          bra       @vsprintf_fconv_50
                    3178   @vsprintf_fconv_53:
0800200C  7010      3179          moveq     #16,D0
0800200E  9083      3180          sub.l     D3,D0
08002010  2C00      3181          move.l    D0,D6
08002012  0C80 0000 3182          cmp.l     #0,D0
08002016  0000      
08002018  6C02      3183          bge.s     @vsprintf_fconv_54
0800201A  4286      3184          clr.l     D6
                    3185   @vsprintf_fconv_54:
0800201C  2005      3186          move.l    D5,D0
0800201E  9086      3187          sub.l     D6,D0
08002020  2A40      3188          move.l    D0,A5
08002022  0C80 0000 3189          cmp.l     #0,D0
08002026  0000      
08002028  6C06      3190          bge.s     @vsprintf_fconv_56
0800202A  2C05      3191          move.l    D5,D6
0800202C  3A7C 0000 3192          move.w    #0,A5
                    3193   @vsprintf_fconv_56:
08002030  4A86      3194          tst.l     D6
08002032  6708      3195          beq.s     @vsprintf_fconv_58
08002034  2042      3196          move.l    D2,A0
08002036  5282      3197          addq.l    #1,D2
08002038  10BC 002E 3198          move.b    #46,(A0)
                    3199   @vsprintf_fconv_58:
0800203C  2006      3200          move.l    D6,D0
0800203E  5386      3201          subq.l    #1,D6
08002040  4A80      3202          tst.l     D0
08002042  6704      3203          beq.s     @vsprintf_fconv_62
08002044  5282      3204          addq.l    #1,D2
08002046  60F4      3205          bra       @vsprintf_fconv_58
                    3206   @vsprintf_fconv_62:
08002048  200D      3207          move.l    A5,D0
0800204A  534D      3208          subq.w    #1,A5
0800204C  4A80      3209          tst.l     D0
0800204E  670A      3210          beq.s     @vsprintf_fconv_65
08002050  2042      3211          move.l    D2,A0
08002052  5282      3212          addq.l    #1,D2
08002054  10BC 0030 3213          move.b    #48,(A0)
08002058  60EE      3214          bra       @vsprintf_fconv_62
                    3215   @vsprintf_fconv_65:
0800205A  2042      3216          move.l    D2,A0
0800205C  4210      3217          clr.b     (A0)
0800205E  6000 00E0 3218          bra       @vsprintf_fconv_67
                    3219   @vsprintf_fconv_40:
08002062  0C83 0000 3220          cmp.l     #0,D3
08002066  0000      
08002068  6C00 008E 3221          bge       @vsprintf_fconv_66
0800206C  2003      3222          move.l    D3,D0
0800206E  4480      3223          neg.l     D0
08002070  2600      3224          move.l    D0,D3
08002072  0C83 0000 3225          cmp.l     #16,D3
08002076  0010      
08002078  6F02      3226          ble.s     @vsprintf_fconv_68
0800207A  7610      3227          moveq     #16,D3
                    3228   @vsprintf_fconv_68:
0800207C  7010      3229          moveq     #16,D0
0800207E  9083      3230          sub.l     D3,D0
08002080  2C00      3231          move.l    D0,D6
08002082  2002      3232          move.l    D2,D0
08002084  0680 0000 3233          add.l     #16,D0
08002088  0010      
0800208A  2800      3234          move.l    D0,D4
0800208C  2002      3235          move.l    D2,D0
0800208E  D086      3236          add.l     D6,D0
08002090  2E00      3237          move.l    D0,D7
                    3238   @vsprintf_fconv_70:
08002092  2006      3239          move.l    D6,D0
08002094  5386      3240          subq.l    #1,D6
08002096  4A80      3241          tst.l     D0
08002098  6712      3242          beq.s     @vsprintf_fconv_72
0800209A  2047      3243          move.l    D7,A0
0800209C  2244      3244          move.l    D4,A1
0800209E  5384      3245          subq.l    #1,D4
080020A0  1290      3246          move.b    (A0),(A1)
080020A2  2047      3247          move.l    D7,A0
080020A4  5387      3248          subq.l    #1,D7
080020A6  10BC 0030 3249          move.b    #48,(A0)
080020AA  60E6      3250          bra       @vsprintf_fconv_70
                    3251   @vsprintf_fconv_72:
080020AC  B882      3252          cmp.l     D2,D4
080020AE  670A      3253          beq.s     @vsprintf_fconv_75
080020B0  2044      3254          move.l    D4,A0
080020B2  5384      3255          subq.l    #1,D4
080020B4  10BC 0030 3256          move.b    #48,(A0)
080020B8  60F2      3257          bra       @vsprintf_fconv_72
                    3258   @vsprintf_fconv_75:
080020BA  2F0A      3259          move.l    A2,-(A7)
080020BC  2F05      3260          move.l    D5,-(A7)
080020BE  2F02      3261          move.l    D2,-(A7)
080020C0  6100 FC38 3262          bsr       @vsprintf_fround
080020C4  DEFC 000C 3263          add.w     #12,A7
080020C8  2800      3264          move.l    D0,D4
080020CA  2044      3265          move.l    D4,A0
080020CC  4210      3266          clr.b     (A0)
080020CE  2042      3267          move.l    D2,A0
080020D0  1010      3268          move.b    (A0),D0
080020D2  4880      3269          ext.w     D0
080020D4  48C0      3270          ext.l     D0
080020D6  0C80 0000 3271          cmp.l     #46,D0
080020DA  002E      
080020DC  6616      3272          bne.s     @vsprintf_fconv_76
                    3273   @vsprintf_fconv_78:
080020DE  2044      3274          move.l    D4,A0
080020E0  2244      3275          move.l    D4,A1
080020E2  1350 0001 3276          move.b    (A0),1(A1)
080020E6  2004      3277          move.l    D4,D0
080020E8  5384      3278          subq.l    #1,D4
080020EA  B082      3279          cmp.l     D2,D0
080020EC  66F0      3280          bne       @vsprintf_fconv_78
080020EE  2042      3281          move.l    D2,A0
080020F0  10BC 0030 3282          move.b    #48,(A0)
                    3283   @vsprintf_fconv_76:
080020F4  6000 004A 3284          bra       @vsprintf_fconv_67
                    3285   @vsprintf_fconv_66:
080020F8  2F0A      3286          move.l    A2,-(A7)
080020FA  2F05      3287          move.l    D5,-(A7)
080020FC  2F02      3288          move.l    D2,-(A7)
080020FE  6100 FBFA 3289          bsr       @vsprintf_fround
08002102  DEFC 000C 3290          add.w     #12,A7
08002106  2042      3291          move.l    D2,A0
08002108  1010      3292          move.b    (A0),D0
0800210A  4880      3293          ext.w     D0
0800210C  48C0      3294          ext.l     D0
0800210E  0C80 0000 3295          cmp.l     #46,D0
08002112  002E      
08002114  6620      3296          bne.s     @vsprintf_fconv_80
08002116  2002      3297          move.l    D2,D0
08002118  D085      3298          add.l     D5,D0
0800211A  5280      3299          addq.l    #1,D0
0800211C  2800      3300          move.l    D0,D4
                    3301   @vsprintf_fconv_82:
0800211E  B882      3302          cmp.l     D2,D4
08002120  670E      3303          beq.s     @vsprintf_fconv_84
08002122  2004      3304          move.l    D4,D0
08002124  5380      3305          subq.l    #1,D0
08002126  2040      3306          move.l    D0,A0
08002128  2244      3307          move.l    D4,A1
0800212A  1290      3308          move.b    (A0),(A1)
0800212C  5384      3309          subq.l    #1,D4
0800212E  60EE      3310          bra       @vsprintf_fconv_82
                    3311   @vsprintf_fconv_84:
08002130  2042      3312          move.l    D2,A0
08002132  10BC 0030 3313          move.b    #48,(A0)
                    3314   @vsprintf_fconv_80:
08002136  5282      3315          addq.l    #1,D2
08002138  2042      3316          move.l    D2,A0
0800213A  D1C5      3317          add.l     D5,A0
0800213C  4228 0001 3318          clr.b     1(A0)
                    3319   @vsprintf_fconv_67:
08002140  200B      3320          move.l    A3,D0
08002142  0C80 0000 3321          cmp.l     #71,D0
08002146  0047      
08002148  671C      3322          beq.s     @vsprintf_fconv_87
0800214A  200B      3323          move.l    A3,D0
0800214C  0C80 0000 3324          cmp.l     #103,D0
08002150  0067      
08002152  6712      3325          beq.s     @vsprintf_fconv_87
08002154  4A85      3326          tst.l     D5
08002156  670E      3327          beq.s     @vsprintf_fconv_87
08002158  202E FFFC 3328          move.l    -4(A6),D0
0800215C  0C80 FFFF 3329          cmp.l     #-1,D0
08002160  FFFF      
08002162  6600 0082 3330          bne       @vsprintf_fconv_98
                    3331   @vsprintf_fconv_87:
08002166  4878 002E 3332          pea       46
0800216A  2F0C      3333          move.l    A4,-(A7)
0800216C  6100 0BF4 3334          bsr       _strchr
08002170  504F      3335          addq.w    #8,A7
08002172  4A80      3336          tst.l     D0
08002174  6700 005E 3337          beq       @vsprintf_fconv_88
08002178  200C      3338          move.l    A4,D0
0800217A  2F00      3339          move.l    D0,-(A7)
0800217C  2F0C      3340          move.l    A4,-(A7)
0800217E  6100 0BD0 3341          bsr       _strlen
08002182  584F      3342          addq.w    #4,A7
08002184  2200      3343          move.l    D0,D1
08002186  201F      3344          move.l    (A7)+,D0
08002188  D081      3345          add.l     D1,D0
0800218A  5380      3346          subq.l    #1,D0
0800218C  2400      3347          move.l    D0,D2
0800218E  200B      3348          move.l    A3,D0
08002190  0C80 0000 3349          cmp.l     #71,D0
08002194  0047      
08002196  670A      3350          beq.s     @vsprintf_fconv_92
08002198  200B      3351          move.l    A3,D0
0800219A  0C80 0000 3352          cmp.l     #103,D0
0800219E  0067      
080021A0  6618      3353          bne.s     @vsprintf_fconv_95
                    3354   @vsprintf_fconv_92:
080021A2  2042      3355          move.l    D2,A0
080021A4  1010      3356          move.b    (A0),D0
080021A6  4880      3357          ext.w     D0
080021A8  48C0      3358          ext.l     D0
080021AA  0C80 0000 3359          cmp.l     #48,D0
080021AE  0030      
080021B0  6608      3360          bne.s     @vsprintf_fconv_95
080021B2  2042      3361          move.l    D2,A0
080021B4  5382      3362          subq.l    #1,D2
080021B6  4210      3363          clr.b     (A0)
080021B8  60E8      3364          bra       @vsprintf_fconv_92
                    3365   @vsprintf_fconv_95:
080021BA  200A      3366          move.l    A2,D0
080021BC  6614      3367          bne.s     @vsprintf_fconv_96
080021BE  2042      3368          move.l    D2,A0
080021C0  1010      3369          move.b    (A0),D0
080021C2  4880      3370          ext.w     D0
080021C4  48C0      3371          ext.l     D0
080021C6  0C80 0000 3372          cmp.l     #46,D0
080021CA  002E      
080021CC  6604      3373          bne.s     @vsprintf_fconv_96
080021CE  2042      3374          move.l    D2,A0
080021D0  4210      3375          clr.b     (A0)
                    3376   @vsprintf_fconv_96:
080021D2  6012      3377          bra.s     @vsprintf_fconv_98
                    3378   @vsprintf_fconv_88:
080021D4  200A      3379          move.l    A2,D0
080021D6  670E      3380          beq.s     @vsprintf_fconv_98
080021D8  4879 0800 3381          pea       @vsprintf_1
080021DC  2F00      
080021DE  2F0C      3382          move.l    A4,-(A7)
080021E0  6100 FA10 3383          bsr       _strcat
080021E4  504F      3384          addq.w    #8,A7
                    3385   @vsprintf_fconv_98:
080021E6  4CDF 3CFC 3386          movem.l   (A7)+,D2/D3/D4/D5/D6/D7/A2/A3/A4/A5
080021EA  4E5E      3387          unlk      A6
080021EC  4E75      3388          rts
                    3389   _vsprintf:
080021EE  4E56 FFCC 3390          link      A6,#-52
080021F2  48E7 3F3C 3391          movem.l   D2/D3/D4/D5/D6/D7/A2/A3/A4/A5,-(A7)
080021F6  45EE 0008 3392          lea       8(A6),A2
080021FA  47F9 0800 3393          lea       @vsprintf_copy,A3
080021FE  1C48      
08002200  49F9 0800 3394          lea       _ultoa,A4
08002204  2BE6      
08002206  4286      3395          clr.l     D6
                    3396   vsprintf_1:
08002208  206E 000C 3397          move.l    12(A6),A0
0800220C  4A10      3398          tst.b     (A0)
0800220E  6700 076E 3399          beq       vsprintf_3
08002212  206E 000C 3400          move.l    12(A6),A0
08002216  1010      3401          move.b    (A0),D0
08002218  4880      3402          ext.w     D0
0800221A  48C0      3403          ext.l     D0
0800221C  0C80 0000 3404          cmp.l     #37,D0
08002220  0025      
08002222  671C      3405          beq.s     vsprintf_4
08002224  206E 000C 3406          move.l    12(A6),A0
08002228  52AE 000C 3407          addq.l    #1,12(A6)
0800222C  1210      3408          move.b    (A0),D1
0800222E  4881      3409          ext.w     D1
08002230  48C1      3410          ext.l     D1
08002232  2F01      3411          move.l    D1,-(A7)
08002234  2F0A      3412          move.l    A2,-(A7)
08002236  4E93      3413          jsr       (A3)
08002238  504F      3414          addq.w    #8,A7
0800223A  5286      3415          addq.l    #1,D6
0800223C  6000 073C 3416          bra       vsprintf_2
                    3417   vsprintf_4:
08002240  52AE 000C 3418          addq.l    #1,12(A6)
08002244  422E FFD3 3419          clr.b     -45(A6)
08002248  422E FFD2 3420          clr.b     -46(A6)
0800224C  422E FFD0 3421          clr.b     -48(A6)
08002250  422E FFCF 3422          clr.b     -49(A6)
08002254  422E FFCE 3423          clr.b     -50(A6)
08002258  422E FFCD 3424          clr.b     -51(A6)
0800225C  42AE FFFC 3425          clr.l     -4(A6)
08002260  78FF      3426          moveq     #-1,D4
08002262  41EE FFDC 3427          lea       -36(A6),A0
08002266  2408      3428          move.l    A0,D2
08002268  2608      3429          move.l    A0,D3
                    3430   vsprintf_6:
0800226A  206E 000C 3431          move.l    12(A6),A0
0800226E  1010      3432          move.b    (A0),D0
08002270  4880      3433          ext.w     D0
08002272  48C0      3434          ext.l     D0
08002274  0C80 0000 3435          cmp.l     #43,D0
08002278  002B      
0800227A  6730      3436          beq.s     vsprintf_12
0800227C  6E18      3437          bgt.s     vsprintf_15
0800227E  0C80 0000 3438          cmp.l     #35,D0
08002282  0023      
08002284  6700 003E 3439          beq       vsprintf_14
08002288  6E00 0046 3440          bgt       vsprintf_9
0800228C  0C80 0000 3441          cmp.l     #32,D0
08002290  0020      
08002292  6724      3442          beq.s     vsprintf_13
08002294  603A      3443          bra.s     vsprintf_9
                    3444   vsprintf_15:
08002296  0C80 0000 3445          cmp.l     #45,D0
0800229A  002D      
0800229C  6702      3446          beq.s     vsprintf_11
0800229E  6030      3447          bra.s     vsprintf_9
                    3448   vsprintf_11:
080022A0  1D7C 0001 3449          move.b    #1,-51(A6)
080022A4  FFCD      
080022A6  52AE 000C 3450          addq.l    #1,12(A6)
080022AA  6026      3451          bra.s     vsprintf_7
                    3452   vsprintf_12:
080022AC  1D7C 0001 3453          move.b    #1,-50(A6)
080022B0  FFCE      
080022B2  52AE 000C 3454          addq.l    #1,12(A6)
080022B6  601A      3455          bra.s     vsprintf_7
                    3456   vsprintf_13:
080022B8  1D7C 0001 3457          move.b    #1,-49(A6)
080022BC  FFCF      
080022BE  52AE 000C 3458          addq.l    #1,12(A6)
080022C2  600E      3459          bra.s     vsprintf_7
                    3460   vsprintf_14:
080022C4  1D7C 0001 3461          move.b    #1,-48(A6)
080022C8  FFD0      
080022CA  52AE 000C 3462          addq.l    #1,12(A6)
080022CE  6002      3463          bra.s     vsprintf_7
                    3464   vsprintf_9:
080022D0  6002      3465          bra.s     vsprintf_8
                    3466   vsprintf_7:
080022D2  6096      3467          bra       vsprintf_6
                    3468   vsprintf_8:
080022D4  206E 000C 3469          move.l    12(A6),A0
080022D8  1010      3470          move.b    (A0),D0
080022DA  4880      3471          ext.w     D0
080022DC  48C0      3472          ext.l     D0
080022DE  0C80 0000 3473          cmp.l     #48,D0
080022E2  0030      
080022E4  660A      3474          bne.s     vsprintf_16
080022E6  52AE 000C 3475          addq.l    #1,12(A6)
080022EA  1D7C 0001 3476          move.b    #1,-46(A6)
080022EE  FFD2      
                    3477   vsprintf_16:
080022F0  486E 0010 3478          pea       16(A6)
080022F4  486E 000C 3479          pea       12(A6)
080022F8  6100 F978 3480          bsr       @vsprintf_getval
080022FC  504F      3481          addq.w    #8,A7
080022FE  2A40      3482          move.l    D0,A5
08002300  206E 000C 3483          move.l    12(A6),A0
08002304  1010      3484          move.b    (A0),D0
08002306  4880      3485          ext.w     D0
08002308  48C0      3486          ext.l     D0
0800230A  0C80 0000 3487          cmp.l     #46,D0
0800230E  002E      
08002310  6614      3488          bne.s     vsprintf_18
08002312  52AE 000C 3489          addq.l    #1,12(A6)
08002316  486E 0010 3490          pea       16(A6)
0800231A  486E 000C 3491          pea       12(A6)
0800231E  6100 F952 3492          bsr       @vsprintf_getval
08002322  504F      3493          addq.w    #8,A7
08002324  2800      3494          move.l    D0,D4
                    3495   vsprintf_18:
08002326  206E 000C 3496          move.l    12(A6),A0
0800232A  1010      3497          move.b    (A0),D0
0800232C  4880      3498          ext.w     D0
0800232E  48C0      3499          ext.l     D0
08002330  0C80 0000 3500          cmp.l     #108,D0
08002334  006C      
08002336  660A      3501          bne.s     vsprintf_20
08002338  52AE 000C 3502          addq.l    #1,12(A6)
0800233C  1D7C 0001 3503          move.b    #1,-45(A6)
08002340  FFD3      
                    3504   vsprintf_20:
08002342  206E 000C 3505          move.l    12(A6),A0
08002346  1010      3506          move.b    (A0),D0
08002348  4880      3507          ext.w     D0
0800234A  48C0      3508          ext.l     D0
0800234C  0C80 0000 3509          cmp.l     #102,D0
08002350  0066      
08002352  6700 01CC 3510          beq       vsprintf_32
08002356  6E00 0052 3511          bgt       vsprintf_38
0800235A  0C80 0000 3512          cmp.l     #99,D0
0800235E  0063      
08002360  6700 017A 3513          beq       vsprintf_30
08002364  6E28      3514          bgt.s     vsprintf_39
08002366  0C80 0000 3515          cmp.l     #71,D0
0800236A  0047      
0800236C  6700 01B2 3516          beq       vsprintf_32
08002370  6E0E      3517          bgt.s     vsprintf_40
08002372  0C80 0000 3518          cmp.l     #69,D0
08002376  0045      
08002378  6700 01A6 3519          beq       vsprintf_32
0800237C  6000 021E 3520          bra       vsprintf_22
                    3521   vsprintf_40:
08002380  0C80 0000 3522          cmp.l     #88,D0
08002384  0058      
08002386  6700 011C 3523          beq       vsprintf_28
0800238A  6000 0210 3524          bra       vsprintf_22
                    3525   vsprintf_39:
0800238E  0C80 0000 3526          cmp.l     #101,D0
08002392  0065      
08002394  6700 018A 3527          beq       vsprintf_32
08002398  6E00 0202 3528          bgt       vsprintf_22
0800239C  0C80 0000 3529          cmp.l     #100,D0
080023A0  0064      
080023A2  6700 0054 3530          beq       vsprintf_24
080023A6  6000 01F4 3531          bra       vsprintf_22
                    3532   vsprintf_38:
080023AA  0C80 0000 3533          cmp.l     #115,D0
080023AE  0073      
080023B0  6700 014E 3534          beq       vsprintf_31
080023B4  6E26      3535          bgt.s     vsprintf_41
080023B6  0C80 0000 3536          cmp.l     #105,D0
080023BA  0069      
080023BC  673A      3537          beq.s     vsprintf_24
080023BE  6E0E      3538          bgt.s     vsprintf_42
080023C0  0C80 0000 3539          cmp.l     #103,D0
080023C4  0067      
080023C6  6700 0158 3540          beq       vsprintf_32
080023CA  6000 01D0 3541          bra       vsprintf_22
                    3542   vsprintf_42:
080023CE  0C80 0000 3543          cmp.l     #111,D0
080023D2  006F      
080023D4  6700 0096 3544          beq       vsprintf_27
080023D8  6000 01C2 3545          bra       vsprintf_22
                    3546   vsprintf_41:
080023DC  0C80 0000 3547          cmp.l     #120,D0
080023E0  0078      
080023E2  6700 00C0 3548          beq       vsprintf_28
080023E6  6E00 01B4 3549          bgt       vsprintf_22
080023EA  0C80 0000 3550          cmp.l     #117,D0
080023EE  0075      
080023F0  6700 0042 3551          beq       vsprintf_26
080023F4  6000 01A6 3552          bra       vsprintf_22
                    3553   vsprintf_24:
080023F8  4A2E FFD3 3554          tst.b     -45(A6)
080023FC  671A      3555          beq.s     vsprintf_43
080023FE  4878 000A 3556          pea       10
08002402  2F02      3557          move.l    D2,-(A7)
08002404  206E 0010 3558          move.l    16(A6),A0
08002408  58AE 0010 3559          addq.l    #4,16(A6)
0800240C  2F10      3560          move.l    (A0),-(A7)
0800240E  6100 0752 3561          bsr       _ltoa
08002412  DEFC 000C 3562          add.w     #12,A7
08002416  6018      3563          bra.s     vsprintf_44
                    3564   vsprintf_43:
08002418  4878 000A 3565          pea       10
0800241C  2F02      3566          move.l    D2,-(A7)
0800241E  206E 0010 3567          move.l    16(A6),A0
08002422  58AE 0010 3568          addq.l    #4,16(A6)
08002426  2F10      3569          move.l    (A0),-(A7)
08002428  6100 0738 3570          bsr       _ltoa
0800242C  DEFC 000C 3571          add.w     #12,A7
                    3572   vsprintf_44:
08002430  6000 0178 3573          bra       vsprintf_23
                    3574   vsprintf_26:
08002434  4A2E FFD3 3575          tst.b     -45(A6)
08002438  6718      3576          beq.s     vsprintf_45
0800243A  4878 000A 3577          pea       10
0800243E  2F02      3578          move.l    D2,-(A7)
08002440  206E 0010 3579          move.l    16(A6),A0
08002444  58AE 0010 3580          addq.l    #4,16(A6)
08002448  2F10      3581          move.l    (A0),-(A7)
0800244A  4E94      3582          jsr       (A4)
0800244C  DEFC 000C 3583          add.w     #12,A7
08002450  6016      3584          bra.s     vsprintf_46
                    3585   vsprintf_45:
08002452  4878 000A 3586          pea       10
08002456  2F02      3587          move.l    D2,-(A7)
08002458  206E 0010 3588          move.l    16(A6),A0
0800245C  58AE 0010 3589          addq.l    #4,16(A6)
08002460  2F10      3590          move.l    (A0),-(A7)
08002462  4E94      3591          jsr       (A4)
08002464  DEFC 000C 3592          add.w     #12,A7
                    3593   vsprintf_46:
08002468  6000 0140 3594          bra       vsprintf_23
                    3595   vsprintf_27:
0800246C  4A2E FFD3 3596          tst.b     -45(A6)
08002470  6718      3597          beq.s     vsprintf_47
08002472  4878 0008 3598          pea       8
08002476  2F02      3599          move.l    D2,-(A7)
08002478  206E 0010 3600          move.l    16(A6),A0
0800247C  58AE 0010 3601          addq.l    #4,16(A6)
08002480  2F10      3602          move.l    (A0),-(A7)
08002482  4E94      3603          jsr       (A4)
08002484  DEFC 000C 3604          add.w     #12,A7
08002488  6016      3605          bra.s     vsprintf_48
                    3606   vsprintf_47:
0800248A  4878 0008 3607          pea       8
0800248E  2F02      3608          move.l    D2,-(A7)
08002490  206E 0010 3609          move.l    16(A6),A0
08002494  58AE 0010 3610          addq.l    #4,16(A6)
08002498  2F10      3611          move.l    (A0),-(A7)
0800249A  4E94      3612          jsr       (A4)
0800249C  DEFC 000C 3613          add.w     #12,A7
                    3614   vsprintf_48:
080024A0  6000 0108 3615          bra       vsprintf_23
                    3616   vsprintf_28:
080024A4  4A2E FFD3 3617          tst.b     -45(A6)
080024A8  6718      3618          beq.s     vsprintf_49
080024AA  4878 0010 3619          pea       16
080024AE  2F02      3620          move.l    D2,-(A7)
080024B0  206E 0010 3621          move.l    16(A6),A0
080024B4  58AE 0010 3622          addq.l    #4,16(A6)
080024B8  2F10      3623          move.l    (A0),-(A7)
080024BA  4E94      3624          jsr       (A4)
080024BC  DEFC 000C 3625          add.w     #12,A7
080024C0  6016      3626          bra.s     vsprintf_50
                    3627   vsprintf_49:
080024C2  4878 0010 3628          pea       16
080024C6  2F02      3629          move.l    D2,-(A7)
080024C8  206E 0010 3630          move.l    16(A6),A0
080024CC  58AE 0010 3631          addq.l    #4,16(A6)
080024D0  2F10      3632          move.l    (A0),-(A7)
080024D2  4E94      3633          jsr       (A4)
080024D4  DEFC 000C 3634          add.w     #12,A7
                    3635   vsprintf_50:
080024D8  6000 00D0 3636          bra       vsprintf_23
                    3637   vsprintf_30:
080024DC  206E 0010 3638          move.l    16(A6),A0
080024E0  58AE 0010 3639          addq.l    #4,16(A6)
080024E4  2010      3640          move.l    (A0),D0
080024E6  2043      3641          move.l    D3,A0
080024E8  5283      3642          addq.l    #1,D3
080024EA  1080      3643          move.b    D0,(A0)
080024EC  2043      3644          move.l    D3,A0
080024EE  4210      3645          clr.b     (A0)
080024F0  200D      3646          move.l    A5,D0
080024F2  6704      3647          beq.s     vsprintf_51
080024F4  200D      3648          move.l    A5,D0
080024F6  6002      3649          bra.s     vsprintf_52
                    3650   vsprintf_51:
080024F8  7001      3651          moveq     #1,D0
                    3652   vsprintf_52:
080024FA  2800      3653          move.l    D0,D4
080024FC  6000 00AC 3654          bra       vsprintf_23
                    3655   vsprintf_31:
08002500  206E 0010 3656          move.l    16(A6),A0
08002504  58AE 0010 3657          addq.l    #4,16(A6)
08002508  2410      3658          move.l    (A0),D2
0800250A  0C84 FFFF 3659          cmp.l     #-1,D4
0800250E  FFFF      
08002510  660A      3660          bne.s     vsprintf_53
08002512  2F02      3661          move.l    D2,-(A7)
08002514  6100 083A 3662          bsr       _strlen
08002518  584F      3663          addq.w    #4,A7
0800251A  2800      3664          move.l    D0,D4
                    3665   vsprintf_53:
0800251C  6000 008C 3666          bra       vsprintf_23
                    3667   vsprintf_32:
08002520  4A2E FFD3 3668          tst.b     -45(A6)
08002524  6700 0038 3669          beq       vsprintf_55
08002528  206E 000C 3670          move.l    12(A6),A0
0800252C  1210      3671          move.b    (A0),D1
0800252E  4881      3672          ext.w     D1
08002530  48C1      3673          ext.l     D1
08002532  2F01      3674          move.l    D1,-(A7)
08002534  122E FFD0 3675          move.b    -48(A6),D1
08002538  4881      3676          ext.w     D1
0800253A  48C1      3677          ext.l     D1
0800253C  2F01      3678          move.l    D1,-(A7)
0800253E  2F04      3679          move.l    D4,-(A7)
08002540  206E 0010 3680          move.l    16(A6),A0
08002544  50AE 0010 3681          addq.l    #8,16(A6)
08002548  F210 5400 3682          fmove.d   (A0),FP0
0800254C  F227 7400 3683          fmove.d   FP0,-(A7)
08002550  2F02      3684          move.l    D2,-(A7)
08002552  6100 F870 3685          bsr       @vsprintf_fconv
08002556  DEFC 0018 3686          add.w     #24,A7
0800255A  6000 0034 3687          bra       vsprintf_56
                    3688   vsprintf_55:
0800255E  206E 000C 3689          move.l    12(A6),A0
08002562  1210      3690          move.b    (A0),D1
08002564  4881      3691          ext.w     D1
08002566  48C1      3692          ext.l     D1
08002568  2F01      3693          move.l    D1,-(A7)
0800256A  122E FFD0 3694          move.b    -48(A6),D1
0800256E  4881      3695          ext.w     D1
08002570  48C1      3696          ext.l     D1
08002572  2F01      3697          move.l    D1,-(A7)
08002574  2F04      3698          move.l    D4,-(A7)
08002576  206E 0010 3699          move.l    16(A6),A0
0800257A  5CAE 0010 3700          addq.l    #6,16(A6)
0800257E  F210 4400 3701          fmove.s   (A0),FP0
08002582  F227 7400 3702          fmove.d   FP0,-(A7)
08002586  2F02      3703          move.l    D2,-(A7)
08002588  6100 F83A 3704          bsr       @vsprintf_fconv
0800258C  DEFC 0018 3705          add.w     #24,A7
                    3706   vsprintf_56:
08002590  0C84 FFFF 3707          cmp.l     #-1,D4
08002594  FFFF      
08002596  6602      3708          bne.s     vsprintf_57
08002598  7806      3709          moveq     #6,D4
                    3710   vsprintf_57:
0800259A  600E      3711          bra.s     vsprintf_23
                    3712   vsprintf_22:
0800259C  206E 000C 3713          move.l    12(A6),A0
080025A0  2243      3714          move.l    D3,A1
080025A2  5283      3715          addq.l    #1,D3
080025A4  1290      3716          move.b    (A0),(A1)
080025A6  2043      3717          move.l    D3,A0
080025A8  4210      3718          clr.b     (A0)
                    3719   vsprintf_23:
080025AA  2F02      3720          move.l    D2,-(A7)
080025AC  6100 07A2 3721          bsr       _strlen
080025B0  584F      3722          addq.w    #4,A7
080025B2  1A00      3723          move.b    D0,D5
080025B4  206E 000C 3724          move.l    12(A6),A0
080025B8  1010      3725          move.b    (A0),D0
080025BA  4880      3726          ext.w     D0
080025BC  48C0      3727          ext.l     D0
080025BE  0C80 0000 3728          cmp.l     #115,D0
080025C2  0073      
080025C4  6618      3729          bne.s     vsprintf_59
080025C6  0C84 0000 3730          cmp.l     #0,D4
080025CA  0000      
080025CC  6D10      3731          blt.s     vsprintf_59
080025CE  4885      3732          ext.w     D5
080025D0  48C5      3733          ext.l     D5
080025D2  BA84      3734          cmp.l     D4,D5
080025D4  6F04      3735          ble.s     vsprintf_61
080025D6  1004      3736          move.b    D4,D0
080025D8  6002      3737          bra.s     vsprintf_62
                    3738   vsprintf_61:
080025DA  1005      3739          move.b    D5,D0
                    3740   vsprintf_62:
080025DC  1A00      3741          move.b    D0,D5
                    3742   vsprintf_59:
080025DE  206E 000C 3743          move.l    12(A6),A0
080025E2  1010      3744          move.b    (A0),D0
080025E4  4880      3745          ext.w     D0
080025E6  48C0      3746          ext.l     D0
080025E8  0C80 0000 3747          cmp.l     #88,D0
080025EC  0058      
080025EE  6600 0026 3748          bne       vsprintf_67
080025F2  41EE FFDC 3749          lea       -36(A6),A0
080025F6  2608      3750          move.l    A0,D3
                    3751   vsprintf_65:
080025F8  2043      3752          move.l    D3,A0
080025FA  4A10      3753          tst.b     (A0)
080025FC  6718      3754          beq.s     vsprintf_67
080025FE  2043      3755          move.l    D3,A0
08002600  1210      3756          move.b    (A0),D1
08002602  4881      3757          ext.w     D1
08002604  48C1      3758          ext.l     D1
08002606  2F01      3759          move.l    D1,-(A7)
08002608  6100 F5FE 3760          bsr       _toupper
0800260C  584F      3761          addq.w    #4,A7
0800260E  2043      3762          move.l    D3,A0
08002610  1080      3763          move.b    D0,(A0)
08002612  5283      3764          addq.l    #1,D3
08002614  60E2      3765          bra       vsprintf_65
                    3766   vsprintf_67:
08002616  4287      3767          clr.l     D7
08002618  41EE FFD4 3768          lea       -44(A6),A0
0800261C  2608      3769          move.l    A0,D3
0800261E  206E 000C 3770          move.l    12(A6),A0
08002622  1010      3771          move.b    (A0),D0
08002624  4880      3772          ext.w     D0
08002626  48C0      3773          ext.l     D0
08002628  0C80 0000 3774          cmp.l     #100,D0
0800262C  0064      
0800262E  6700 0076 3775          beq       vsprintf_70
08002632  206E 000C 3776          move.l    12(A6),A0
08002636  1010      3777          move.b    (A0),D0
08002638  4880      3778          ext.w     D0
0800263A  48C0      3779          ext.l     D0
0800263C  0C80 0000 3780          cmp.l     #105,D0
08002640  0069      
08002642  6700 0062 3781          beq       vsprintf_70
08002646  206E 000C 3782          move.l    12(A6),A0
0800264A  1010      3783          move.b    (A0),D0
0800264C  4880      3784          ext.w     D0
0800264E  48C0      3785          ext.l     D0
08002650  0C80 0000 3786          cmp.l     #102,D0
08002654  0066      
08002656  6700 004E 3787          beq       vsprintf_70
0800265A  206E 000C 3788          move.l    12(A6),A0
0800265E  1010      3789          move.b    (A0),D0
08002660  4880      3790          ext.w     D0
08002662  48C0      3791          ext.l     D0
08002664  0C80 0000 3792          cmp.l     #101,D0
08002668  0065      
0800266A  6700 003A 3793          beq       vsprintf_70
0800266E  206E 000C 3794          move.l    12(A6),A0
08002672  1010      3795          move.b    (A0),D0
08002674  4880      3796          ext.w     D0
08002676  48C0      3797          ext.l     D0
08002678  0C80 0000 3798          cmp.l     #103,D0
0800267C  0067      
0800267E  6726      3799          beq.s     vsprintf_70
08002680  206E 000C 3800          move.l    12(A6),A0
08002684  1010      3801          move.b    (A0),D0
08002686  4880      3802          ext.w     D0
08002688  48C0      3803          ext.l     D0
0800268A  0C80 0000 3804          cmp.l     #69,D0
0800268E  0045      
08002690  6714      3805          beq.s     vsprintf_70
08002692  206E 000C 3806          move.l    12(A6),A0
08002696  1010      3807          move.b    (A0),D0
08002698  4880      3808          ext.w     D0
0800269A  48C0      3809          ext.l     D0
0800269C  0C80 0000 3810          cmp.l     #71,D0
080026A0  0047      
080026A2  6600 0076 3811          bne       vsprintf_76
                    3812   vsprintf_70:
080026A6  4A2E FFCE 3813          tst.b     -50(A6)
080026AA  6612      3814          bne.s     vsprintf_73
080026AC  2042      3815          move.l    D2,A0
080026AE  1010      3816          move.b    (A0),D0
080026B0  4880      3817          ext.w     D0
080026B2  48C0      3818          ext.l     D0
080026B4  0C80 0000 3819          cmp.l     #45,D0
080026B8  002D      
080026BA  6600 002E 3820          bne       vsprintf_71
                    3821   vsprintf_73:
080026BE  2042      3822          move.l    D2,A0
080026C0  1010      3823          move.b    (A0),D0
080026C2  4880      3824          ext.w     D0
080026C4  48C0      3825          ext.l     D0
080026C6  0C80 0000 3826          cmp.l     #45,D0
080026CA  002D      
080026CC  660E      3827          bne.s     vsprintf_74
080026CE  2042      3828          move.l    D2,A0
080026D0  5282      3829          addq.l    #1,D2
080026D2  2243      3830          move.l    D3,A1
080026D4  5283      3831          addq.l    #1,D3
080026D6  1290      3832          move.b    (A0),(A1)
080026D8  5305      3833          subq.b    #1,D5
080026DA  6008      3834          bra.s     vsprintf_75
                    3835   vsprintf_74:
080026DC  2043      3836          move.l    D3,A0
080026DE  5283      3837          addq.l    #1,D3
080026E0  10BC 002B 3838          move.b    #43,(A0)
                    3839   vsprintf_75:
080026E4  5287      3840          addq.l    #1,D7
080026E6  6000 0032 3841          bra       vsprintf_76
                    3842   vsprintf_71:
080026EA  4A2E FFCF 3843          tst.b     -49(A6)
080026EE  6700 002A 3844          beq       vsprintf_76
080026F2  2042      3845          move.l    D2,A0
080026F4  1010      3846          move.b    (A0),D0
080026F6  4880      3847          ext.w     D0
080026F8  48C0      3848          ext.l     D0
080026FA  0C80 0000 3849          cmp.l     #45,D0
080026FE  002D      
08002700  660E      3850          bne.s     vsprintf_78
08002702  2042      3851          move.l    D2,A0
08002704  5282      3852          addq.l    #1,D2
08002706  2243      3853          move.l    D3,A1
08002708  5283      3854          addq.l    #1,D3
0800270A  1290      3855          move.b    (A0),(A1)
0800270C  5305      3856          subq.b    #1,D5
0800270E  6008      3857          bra.s     vsprintf_79
                    3858   vsprintf_78:
08002710  2043      3859          move.l    D3,A0
08002712  5283      3860          addq.l    #1,D3
08002714  10BC 0020 3861          move.b    #32,(A0)
                    3862   vsprintf_79:
08002718  5287      3863          addq.l    #1,D7
                    3864   vsprintf_76:
0800271A  4A2E FFD0 3865          tst.b     -48(A6)
0800271E  6700 0066 3866          beq       vsprintf_88
08002722  206E 000C 3867          move.l    12(A6),A0
08002726  1010      3868          move.b    (A0),D0
08002728  4880      3869          ext.w     D0
0800272A  48C0      3870          ext.l     D0
0800272C  0C80 0000 3871          cmp.l     #111,D0
08002730  006F      
08002732  671A      3872          beq.s     vsprintf_84
08002734  6E0C      3873          bgt.s     vsprintf_87
08002736  0C80 0000 3874          cmp.l     #88,D0
0800273A  0058      
0800273C  6710      3875          beq.s     vsprintf_84
0800273E  6000 0046 3876          bra       vsprintf_88
                    3877   vsprintf_87:
08002742  0C80 0000 3878          cmp.l     #120,D0
08002746  0078      
08002748  6704      3879          beq.s     vsprintf_84
0800274A  6000 003A 3880          bra       vsprintf_88
                    3881   vsprintf_84:
0800274E  2043      3882          move.l    D3,A0
08002750  5283      3883          addq.l    #1,D3
08002752  10BC 0030 3884          move.b    #48,(A0)
08002756  5287      3885          addq.l    #1,D7
08002758  206E 000C 3886          move.l    12(A6),A0
0800275C  1010      3887          move.b    (A0),D0
0800275E  4880      3888          ext.w     D0
08002760  48C0      3889          ext.l     D0
08002762  0C80 0000 3890          cmp.l     #120,D0
08002766  0078      
08002768  6712      3891          beq.s     vsprintf_90
0800276A  206E 000C 3892          move.l    12(A6),A0
0800276E  1010      3893          move.b    (A0),D0
08002770  4880      3894          ext.w     D0
08002772  48C0      3895          ext.l     D0
08002774  0C80 0000 3896          cmp.l     #88,D0
08002778  0058      
0800277A  660A      3897          bne.s     vsprintf_88
                    3898   vsprintf_90:
0800277C  2043      3899          move.l    D3,A0
0800277E  5283      3900          addq.l    #1,D3
08002780  10BC 0078 3901          move.b    #120,(A0)
08002784  5287      3902          addq.l    #1,D7
                    3903   vsprintf_88:
08002786  2043      3904          move.l    D3,A0
08002788  4210      3905          clr.b     (A0)
0800278A  206E 000C 3906          move.l    12(A6),A0
0800278E  1010      3907          move.b    (A0),D0
08002790  4880      3908          ext.w     D0
08002792  48C0      3909          ext.l     D0
08002794  0C80 0000 3910          cmp.l     #102,D0
08002798  0066      
0800279A  6700 009C 3911          beq       vsprintf_93
0800279E  6E00 0052 3912          bgt       vsprintf_107
080027A2  0C80 0000 3913          cmp.l     #99,D0
080027A6  0063      
080027A8  6700 00A8 3914          beq       vsprintf_112
080027AC  6E28      3915          bgt.s     vsprintf_108
080027AE  0C80 0000 3916          cmp.l     #71,D0
080027B2  0047      
080027B4  6700 0082 3917          beq       vsprintf_93
080027B8  6E0E      3918          bgt.s     vsprintf_109
080027BA  0C80 0000 3919          cmp.l     #69,D0
080027BE  0045      
080027C0  6700 0076 3920          beq       vsprintf_93
080027C4  6000 019C 3921          bra       vsprintf_91
                    3922   vsprintf_109:
080027C8  0C80 0000 3923          cmp.l     #88,D0
080027CC  0058      
080027CE  6700 0068 3924          beq       vsprintf_93
080027D2  6000 018E 3925          bra       vsprintf_91
                    3926   vsprintf_108:
080027D6  0C80 0000 3927          cmp.l     #101,D0
080027DA  0065      
080027DC  6700 005A 3928          beq       vsprintf_93
080027E0  6E00 0180 3929          bgt       vsprintf_91
080027E4  0C80 0000 3930          cmp.l     #100,D0
080027E8  0064      
080027EA  6700 004C 3931          beq       vsprintf_93
080027EE  6000 0172 3932          bra       vsprintf_91
                    3933   vsprintf_107:
080027F2  0C80 0000 3934          cmp.l     #115,D0
080027F6  0073      
080027F8  6700 0058 3935          beq       vsprintf_112
080027FC  6E22      3936          bgt.s     vsprintf_110
080027FE  0C80 0000 3937          cmp.l     #105,D0
08002802  0069      
08002804  6732      3938          beq.s     vsprintf_93
08002806  6E0C      3939          bgt.s     vsprintf_111
08002808  0C80 0000 3940          cmp.l     #103,D0
0800280C  0067      
0800280E  6728      3941          beq.s     vsprintf_93
08002810  6000 0150 3942          bra       vsprintf_91
                    3943   vsprintf_111:
08002814  0C80 0000 3944          cmp.l     #111,D0
08002818  006F      
0800281A  671C      3945          beq.s     vsprintf_93
0800281C  6000 0144 3946          bra       vsprintf_91
                    3947   vsprintf_110:
08002820  0C80 0000 3948          cmp.l     #120,D0
08002824  0078      
08002826  6710      3949          beq.s     vsprintf_93
08002828  6E00 0138 3950          bgt       vsprintf_91
0800282C  0C80 0000 3951          cmp.l     #117,D0
08002830  0075      
08002832  6704      3952          beq.s     vsprintf_93
08002834  6000 012C 3953          bra       vsprintf_91
                    3954   vsprintf_93:
08002838  4A2E FFD2 3955          tst.b     -46(A6)
0800283C  6714      3956          beq.s     vsprintf_112
0800283E  4A2E FFCD 3957          tst.b     -51(A6)
08002842  660E      3958          bne.s     vsprintf_112
08002844  200D      3959          move.l    A5,D0
08002846  9087      3960          sub.l     D7,D0
08002848  4885      3961          ext.w     D5
0800284A  48C5      3962          ext.l     D5
0800284C  9085      3963          sub.l     D5,D0
0800284E  2D40 FFFC 3964          move.l    D0,-4(A6)
                    3965   vsprintf_112:
08002852  202E FFFC 3966          move.l    -4(A6),D0
08002856  0C80 0000 3967          cmp.l     #0,D0
0800285A  0000      
0800285C  6C04      3968          bge.s     vsprintf_114
0800285E  42AE FFFC 3969          clr.l     -4(A6)
                    3970   vsprintf_114:
08002862  4A2E FFCD 3971          tst.b     -51(A6)
08002866  6600 0030 3972          bne       vsprintf_120
0800286A  4885      3973          ext.w     D5
0800286C  48C5      3974          ext.l     D5
0800286E  2005      3975          move.l    D5,D0
08002870  D0AE FFFC 3976          add.l     -4(A6),D0
08002874  D087      3977          add.l     D7,D0
08002876  1D40 FFD1 3978          move.b    D0,-47(A6)
                    3979   vsprintf_118:
0800287A  102E FFD1 3980          move.b    -47(A6),D0
0800287E  4880      3981          ext.w     D0
08002880  48C0      3982          ext.l     D0
08002882  220D      3983          move.l    A5,D1
08002884  534D      3984          subq.w    #1,A5
08002886  B081      3985          cmp.l     D1,D0
08002888  6C0E      3986          bge.s     vsprintf_120
0800288A  4878 0020 3987          pea       32
0800288E  2F0A      3988          move.l    A2,-(A7)
08002890  4E93      3989          jsr       (A3)
08002892  504F      3990          addq.w    #8,A7
08002894  5286      3991          addq.l    #1,D6
08002896  60E2      3992          bra       vsprintf_118
                    3993   vsprintf_120:
08002898  41EE FFD4 3994          lea       -44(A6),A0
0800289C  2608      3995          move.l    A0,D3
                    3996   vsprintf_121:
0800289E  2043      3997          move.l    D3,A0
080028A0  4A10      3998          tst.b     (A0)
080028A2  6716      3999          beq.s     vsprintf_123
080028A4  2043      4000          move.l    D3,A0
080028A6  5283      4001          addq.l    #1,D3
080028A8  1210      4002          move.b    (A0),D1
080028AA  4881      4003          ext.w     D1
080028AC  48C1      4004          ext.l     D1
080028AE  2F01      4005          move.l    D1,-(A7)
080028B0  2F0A      4006          move.l    A2,-(A7)
080028B2  4E93      4007          jsr       (A3)
080028B4  504F      4008          addq.w    #8,A7
080028B6  5286      4009          addq.l    #1,D6
080028B8  60E4      4010          bra       vsprintf_121
                    4011   vsprintf_123:
080028BA  202E FFFC 4012          move.l    -4(A6),D0
080028BE  1D40 FFD1 4013          move.b    D0,-47(A6)
                    4014   vsprintf_124:
080028C2  102E FFD1 4015          move.b    -47(A6),D0
080028C6  532E FFD1 4016          subq.b    #1,-47(A6)
080028CA  4A00      4017          tst.b     D0
080028CC  670E      4018          beq.s     vsprintf_126
080028CE  4878 0030 4019          pea       48
080028D2  2F0A      4020          move.l    A2,-(A7)
080028D4  4E93      4021          jsr       (A3)
080028D6  504F      4022          addq.w    #8,A7
080028D8  5286      4023          addq.l    #1,D6
080028DA  60E6      4024          bra       vsprintf_124
                    4025   vsprintf_126:
080028DC  2042      4026          move.l    D2,A0
080028DE  4A10      4027          tst.b     (A0)
080028E0  6700 0048 4028          beq       vsprintf_129
080028E4  206E 000C 4029          move.l    12(A6),A0
080028E8  1010      4030          move.b    (A0),D0
080028EA  4880      4031          ext.w     D0
080028EC  48C0      4032          ext.l     D0
080028EE  0C80 0000 4033          cmp.l     #115,D0
080028F2  0073      
080028F4  670C      4034          beq.s     vsprintf_132
080028F6  6E18      4035          bgt.s     vsprintf_135
080028F8  0C80 0000 4036          cmp.l     #99,D0
080028FC  0063      
080028FE  6702      4037          beq.s     vsprintf_132
08002900  600E      4038          bra.s     vsprintf_135
                    4039   vsprintf_132:
08002902  2004      4040          move.l    D4,D0
08002904  5384      4041          subq.l    #1,D4
08002906  0C80 0000 4042          cmp.l     #0,D0
0800290A  0000      
0800290C  6E02      4043          bgt.s     vsprintf_135
0800290E  6016      4044          bra.s     vsprintf_131
                    4045   vsprintf_135:
08002910  2042      4046          move.l    D2,A0
08002912  5282      4047          addq.l    #1,D2
08002914  1210      4048          move.b    (A0),D1
08002916  4881      4049          ext.w     D1
08002918  48C1      4050          ext.l     D1
0800291A  2F01      4051          move.l    D1,-(A7)
0800291C  2F0A      4052          move.l    A2,-(A7)
0800291E  4E93      4053          jsr       (A3)
08002920  504F      4054          addq.w    #8,A7
08002922  5286      4055          addq.l    #1,D6
08002924  6002      4056          bra.s     vsprintf_128
                    4057   vsprintf_131:
08002926  6002      4058          bra.s     vsprintf_129
                    4059   vsprintf_128:
08002928  60B2      4060          bra       vsprintf_126
                    4061   vsprintf_129:
0800292A  4A2E FFCD 4062          tst.b     -51(A6)
0800292E  6700 0030 4063          beq       vsprintf_141
08002932  4885      4064          ext.w     D5
08002934  48C5      4065          ext.l     D5
08002936  2005      4066          move.l    D5,D0
08002938  D0AE FFFC 4067          add.l     -4(A6),D0
0800293C  D087      4068          add.l     D7,D0
0800293E  1D40 FFD1 4069          move.b    D0,-47(A6)
                    4070   vsprintf_139:
08002942  102E FFD1 4071          move.b    -47(A6),D0
08002946  4880      4072          ext.w     D0
08002948  48C0      4073          ext.l     D0
0800294A  220D      4074          move.l    A5,D1
0800294C  534D      4075          subq.w    #1,A5
0800294E  B081      4076          cmp.l     D1,D0
08002950  6C0E      4077          bge.s     vsprintf_141
08002952  4878 0020 4078          pea       32
08002956  2F0A      4079          move.l    A2,-(A7)
08002958  4E93      4080          jsr       (A3)
0800295A  504F      4081          addq.w    #8,A7
0800295C  5386      4082          subq.l    #1,D6
0800295E  60E2      4083          bra       vsprintf_139
                    4084   vsprintf_141:
08002960  6014      4085          bra.s     vsprintf_92
                    4086   vsprintf_91:
08002962  206E 000C 4087          move.l    12(A6),A0
08002966  1210      4088          move.b    (A0),D1
08002968  4881      4089          ext.w     D1
0800296A  48C1      4090          ext.l     D1
0800296C  2F01      4091          move.l    D1,-(A7)
0800296E  2F0A      4092          move.l    A2,-(A7)
08002970  4E93      4093          jsr       (A3)
08002972  504F      4094          addq.w    #8,A7
08002974  5286      4095          addq.l    #1,D6
                    4096   vsprintf_92:
08002976  52AE 000C 4097          addq.l    #1,12(A6)
                    4098   vsprintf_2:
0800297A  6000 F88C 4099          bra       vsprintf_1
                    4100   vsprintf_3:
0800297E  4A92      4101          tst.l     (A2)
08002980  6710      4102          beq.s     vsprintf_142
08002982  4201      4103          clr.b     D1
08002984  0281 0000 4104          andi.l    #255,D1
08002988  00FF      
0800298A  2F01      4105          move.l    D1,-(A7)
0800298C  2F0A      4106          move.l    A2,-(A7)
0800298E  4E93      4107          jsr       (A3)
08002990  504F      4108          addq.w    #8,A7
                    4109   vsprintf_142:
08002992  2006      4110          move.l    D6,D0
08002994  4CDF 3CFC 4111          movem.l   (A7)+,D2/D3/D4/D5/D6/D7/A2/A3/A4/A5
08002998  4E5E      4112          unlk      A6
0800299A  4E75      4113          rts
                    4114   ULDIV:
0800299C  4E56 0000 4115          link    A6,#0
080029A0  48E7 C000 4116          movem.l D0/D1,-(A7)
080029A4  222E 0008 4117          move.l  8(A6),D1
080029A8  202E 000C 4118          move.l  12(A6),D0
080029AC  6036      4119          bra.s   ldiv_3
                    4120   LDIV:
080029AE  4E56 0000 4121          link    A6,#0
080029B2  48E7 C000 4122          movem.l D0/D1,-(A7)
080029B6  222E 0008 4123          move.l  8(A6),D1
080029BA  202E 000C 4124          move.l  12(A6),D0
080029BE  4A80      4125          tst.l   D0
080029C0  6A0E      4126          bpl.s   ldiv_1
080029C2  4480      4127          neg.l   D0
080029C4  4A81      4128          tst.l   D1
080029C6  6A14      4129          bpl.s   ldiv_2
080029C8  4481      4130          neg.l   D1
080029CA  612A      4131          bsr.s   dodiv
080029CC  4481      4132          neg.l   D1
080029CE  6016      4133          bra.s   ldiv_4
                    4134   ldiv_1:
080029D0  4A81      4135          tst.l   D1
080029D2  6A10      4136          bpl.s   ldiv_3
080029D4  4481      4137          neg.l   D1
080029D6  611E      4138          bsr.s   dodiv
080029D8  4480      4139          neg.l   D0
080029DA  600A      4140          bra.s   ldiv_4
                    4141   ldiv_2:
080029DC  6118      4142          bsr.s   dodiv
080029DE  4480      4143          neg.l   D0
080029E0  4481      4144          neg.l   D1
080029E2  6002      4145          bra.s   ldiv_4
                    4146   ldiv_3:
080029E4  6110      4147          bsr.s   dodiv
                    4148   ldiv_4:
080029E6  2D40 0008 4149          move.l  D0,8(A6)
080029EA  2D41 000C 4150          move.l  D1,12(A6)
080029EE  4CDF 0003 4151          movem.l (A7)+,D0/D1
080029F2  4E5E      4152          unlk    A6
080029F4  4E75      4153          rts
                    4154   dodiv:
080029F6  0C81 0000 4155          cmpi.l  #$FFFF,D1
080029FA  FFFF      
080029FC  6236      4156          bhi.s   dodiv_2
080029FE  0C80 0000 4157          cmpi.l  #$FFFF,D0
08002A02  FFFF      
08002A04  6210      4158          bhi.s   dodiv_1
08002A06  80C1      4159          divu    D1,D0
08002A08  2200      4160          move.l  D0,D1
08002A0A  4241      4161          clr.w   D1
08002A0C  4841      4162          swap    D1
08002A0E  0280 0000 4163          andi.l  #$FFFF,D0
08002A12  FFFF      
08002A14  4E75      4164          rts
                    4165   dodiv_1:
08002A16  48A7 A000 4166          movem.w D0/D2,-(A7)
08002A1A  4240      4167          clr.w   D0
08002A1C  4840      4168          swap    D0
08002A1E  80C1      4169          divu    D1,D0
08002A20  3400      4170          move.w  D0,D2
08002A22  301F      4171          move.w  (A7)+,D0
08002A24  80C1      4172          divu    D1,D0
08002A26  4840      4173          swap    D0
08002A28  4281      4174          clr.l   D1
08002A2A  3200      4175          move.w  D0,D1
08002A2C  3002      4176          move.w  D2,D0
08002A2E  4840      4177          swap    D0
08002A30  341F      4178          move.w  (A7)+,D2
08002A32  4E75      4179          rts
                    4180   dodiv_2:
08002A34  48E7 3800 4181          movem.l D2/D3/D4,-(A7)
08002A38  2401      4182          move.l  D1,D2
08002A3A  4242      4183          clr.w   D2
08002A3C  4842      4184          swap    D2
08002A3E  5282      4185          addq.l  #1,D2
08002A40  2600      4186          move.l  D0,D3
08002A42  2801      4187          move.l  D1,D4
08002A44  2202      4188          move.l  D2,D1
08002A46  61CE      4189          bsr.s   dodiv_1
08002A48  2204      4190          move.l  D4,D1
08002A4A  82C2      4191          divu    D2,D1
08002A4C  80C1      4192          divu    D1,D0
08002A4E  0280 0000 4193          andi.l  #$FFFF,D0
08002A52  FFFF      
                    4194   dodiv_3:
08002A54  2204      4195          move.l  D4,D1
08002A56  2404      4196          move.l  D4,D2
08002A58  4842      4197          swap    D2
08002A5A  C2C0      4198          mulu    D0,D1
08002A5C  C4C0      4199          mulu    D0,D2
08002A5E  4842      4200          swap    D2
08002A60  D282      4201          add.l   D2,D1
08002A62  9283      4202          sub.l   D3,D1
08002A64  620A      4203          bhi.s   dodiv_4
08002A66  4481      4204          neg.l   D1
08002A68  B881      4205          cmp.l   D1,D4
08002A6A  6208      4206          bhi.s   dodiv_5
08002A6C  5280      4207          addq.l  #1,D0
08002A6E  60E4      4208          bra.s   dodiv_3
                    4209   dodiv_4:
08002A70  5380      4210          subq.l  #1,D0
08002A72  60E0      4211          bra.s   dodiv_3
                    4212   dodiv_5:
08002A74  4CDF 001C 4213          movem.l (A7)+,D2/D3/D4
08002A78  4E75      4214          rts
                    4215   _pack:
08002A7A  206F 0004 4216          move.l    4(A7),A0
08002A7E  F210 4C00 4217          fmove.p   (A0),FP0
08002A82  4E75      4218          rts
                    4219   _putch:
08002A84  4E56 0000 4220          link      A6,#0
08002A88  48E7 2000 4221          movem.l   D2,-(A7)
08002A8C  242E 0008 4222          move.l    8(A6),D2
08002A90  0C82 0000 4223          cmp.l     #10,D2
08002A94  000A      
08002A96  660A      4224          bne.s     putch_1
08002A98  4878 000D 4225          pea       13
08002A9C  6100 D5CC 4226          bsr       __putch
08002AA0  584F      4227          addq.w    #4,A7
                    4228   putch_1:
08002AA2  2F02      4229          move.l    D2,-(A7)
08002AA4  6100 D5C4 4230          bsr       __putch
08002AA8  584F      4231          addq.w    #4,A7
08002AAA  2002      4232          move.l    D2,D0
08002AAC  4CDF 0004 4233          movem.l   (A7)+,D2
08002AB0  4E5E      4234          unlk      A6
08002AB2  4E75      4235          rts
                    4236   _getch:
08002AB4  48E7 2000 4237          movem.l   D2,-(A7)
08002AB8  2439 0800 4238          move.l    __ungetbuf,D2
08002ABC  2DD4      
08002ABE  2039 0800 4239          move.l    __ungetbuf,D0
08002AC2  2DD4      
08002AC4  0C80 FFFF 4240          cmp.l     #-1,D0
08002AC8  FFFF      
08002ACA  670C      4241          beq.s     getch_1
08002ACC  23FC FFFF 4242          move.l    #-1,__ungetbuf
08002AD0  FFFF 0800 
08002AD4  2DD4      
08002AD6  6010      4243          bra.s     getch_3
                    4244   getch_1:
08002AD8  6100 D564 4245          bsr       __getch
08002ADC  2400      4246          move.l    D0,D2
08002ADE  0C80 0000 4247          cmp.l     #13,D0
08002AE2  000D      
08002AE4  6602      4248          bne.s     getch_3
08002AE6  740A      4249          moveq     #10,D2
                    4250   getch_3:
08002AE8  2002      4251          move.l    D2,D0
08002AEA  4CDF 0004 4252          movem.l   (A7)+,D2
08002AEE  4E75      4253          rts
                    4254   @itoa_convert:
08002AF0  4E56 0000 4255          link      A6,#0
08002AF4  48E7 3C00 4256          movem.l   D2/D3/D4/D5,-(A7)
08002AF8  242E 0008 4257          move.l    8(A6),D2
08002AFC  262E 0010 4258          move.l    16(A6),D3
08002B00  2A2E 000C 4259          move.l    12(A6),D5
08002B04  2F05      4260          move.l    D5,-(A7)
08002B06  2F03      4261          move.l    D3,-(A7)
08002B08  6100 FE92 4262          bsr       ULDIV
08002B0C  202F 0004 4263          move.l    4(A7),D0
08002B10  504F      4264          addq.w    #8,A7
08002B12  2800      4265          move.l    D0,D4
08002B14  BA83      4266          cmp.l     D3,D5
08002B16  651A      4267          blo.s     @itoa_convert_1
08002B18  2F03      4268          move.l    D3,-(A7)
08002B1A  2F05      4269          move.l    D5,-(A7)
08002B1C  2F03      4270          move.l    D3,-(A7)
08002B1E  6100 FE7C 4271          bsr       ULDIV
08002B22  2217      4272          move.l    (A7),D1
08002B24  504F      4273          addq.w    #8,A7
08002B26  2F01      4274          move.l    D1,-(A7)
08002B28  2F02      4275          move.l    D2,-(A7)
08002B2A  61C4      4276          bsr       @itoa_convert
08002B2C  DEFC 000C 4277          add.w     #12,A7
08002B30  2400      4278          move.l    D0,D2
                    4279   @itoa_convert_1:
08002B32  0C84 0000 4280          cmp.l     #9,D4
08002B36  0009      
08002B38  6E0A      4281          bgt.s     @itoa_convert_3
08002B3A  2004      4282          move.l    D4,D0
08002B3C  0680 0000 4283          add.l     #48,D0
08002B40  0030      
08002B42  600E      4284          bra.s     @itoa_convert_4
                    4285   @itoa_convert_3:
08002B44  2004      4286          move.l    D4,D0
08002B46  0680 0000 4287          add.l     #97,D0
08002B4A  0061      
08002B4C  0480 0000 4288          sub.l     #10,D0
08002B50  000A      
                    4289   @itoa_convert_4:
08002B52  2042      4290          move.l    D2,A0
08002B54  1080      4291          move.b    D0,(A0)
08002B56  2002      4292          move.l    D2,D0
08002B58  5280      4293          addq.l    #1,D0
08002B5A  4CDF 003C 4294          movem.l   (A7)+,D2/D3/D4/D5
08002B5E  4E5E      4295          unlk      A6
08002B60  4E75      4296          rts
                    4297   _ltoa:
08002B62  4E56 0000 4298          link      A6,#0
08002B66  48E7 3C00 4299          movem.l   D2/D3/D4/D5,-(A7)
08002B6A  242E 0008 4300          move.l    8(A6),D2
08002B6E  262E 000C 4301          move.l    12(A6),D3
08002B72  2A2E 0010 4302          move.l    16(A6),D5
08002B76  2803      4303          move.l    D3,D4
08002B78  0C85 0000 4304          cmp.l     #2,D5
08002B7C  0002      
08002B7E  6D08      4305          blt.s     ltoa_3
08002B80  0C85 0000 4306          cmp.l     #36,D5
08002B84  0024      
08002B86  6F06      4307          ble.s     ltoa_1
                    4308   ltoa_3:
08002B88  2003      4309          move.l    D3,D0
08002B8A  6000 0052 4310          bra       ltoa_4
                    4311   ltoa_1:
08002B8E  0C85 0000 4312          cmp.l     #10,D5
08002B92  000A      
08002B94  6600 0032 4313          bne       ltoa_5
08002B98  0C82 0000 4314          cmp.l     #0,D2
08002B9C  0000      
08002B9E  6C28      4315          bge.s     ltoa_5
08002BA0  2002      4316          move.l    D2,D0
08002BA2  4480      4317          neg.l     D0
08002BA4  2400      4318          move.l    D0,D2
08002BA6  0C82 0000 4319          cmp.l     #0,D2
08002BAA  0000      
08002BAC  6C12      4320          bge.s     ltoa_7
08002BAE  4879 0800 4321          pea       @itoa_1
08002BB2  2F02      
08002BB4  2F03      4322          move.l    D3,-(A7)
08002BB6  6100 01C4 4323          bsr       _strcpy
08002BBA  504F      4324          addq.w    #8,A7
08002BBC  2003      4325          move.l    D3,D0
08002BBE  601E      4326          bra.s     ltoa_4
                    4327   ltoa_7:
08002BC0  2044      4328          move.l    D4,A0
08002BC2  5284      4329          addq.l    #1,D4
08002BC4  10BC 002D 4330          move.b    #45,(A0)
                    4331   ltoa_5:
08002BC8  2F05      4332          move.l    D5,-(A7)
08002BCA  2F02      4333          move.l    D2,-(A7)
08002BCC  2F04      4334          move.l    D4,-(A7)
08002BCE  6100 FF20 4335          bsr       @itoa_convert
08002BD2  DEFC 000C 4336          add.w     #12,A7
08002BD6  2800      4337          move.l    D0,D4
08002BD8  2044      4338          move.l    D4,A0
08002BDA  4210      4339          clr.b     (A0)
08002BDC  2003      4340          move.l    D3,D0
                    4341   ltoa_4:
08002BDE  4CDF 003C 4342          movem.l   (A7)+,D2/D3/D4/D5
08002BE2  4E5E      4343          unlk      A6
08002BE4  4E75      4344          rts
                    4345   _ultoa:
08002BE6  4E56 0000 4346          link      A6,#0
08002BEA  48E7 3800 4347          movem.l   D2/D3/D4,-(A7)
08002BEE  262E 0010 4348          move.l    16(A6),D3
08002BF2  282E 000C 4349          move.l    12(A6),D4
08002BF6  2404      4350          move.l    D4,D2
08002BF8  0C83 0000 4351          cmp.l     #2,D3
08002BFC  0002      
08002BFE  6D08      4352          blt.s     ultoa_3
08002C00  0C83 0000 4353          cmp.l     #36,D3
08002C04  0024      
08002C06  6F04      4354          ble.s     ultoa_1
                    4355   ultoa_3:
08002C08  2004      4356          move.l    D4,D0
08002C0A  6018      4357          bra.s     ultoa_4
                    4358   ultoa_1:
08002C0C  2F03      4359          move.l    D3,-(A7)
08002C0E  2F2E 0008 4360          move.l    8(A6),-(A7)
08002C12  2F02      4361          move.l    D2,-(A7)
08002C14  6100 FEDA 4362          bsr       @itoa_convert
08002C18  DEFC 000C 4363          add.w     #12,A7
08002C1C  2400      4364          move.l    D0,D2
08002C1E  2042      4365          move.l    D2,A0
08002C20  4210      4366          clr.b     (A0)
08002C22  2004      4367          move.l    D4,D0
                    4368   ultoa_4:
08002C24  4CDF 001C 4369          movem.l   (A7)+,D2/D3/D4
08002C28  4E5E      4370          unlk      A6
08002C2A  4E75      4371          rts
                    4372   _itoa:
08002C2C  4E56 0000 4373          link      A6,#0
08002C30  2F2E 0010 4374          move.l    16(A6),-(A7)
08002C34  2F2E 000C 4375          move.l    12(A6),-(A7)
08002C38  2F2E 0008 4376          move.l    8(A6),-(A7)
08002C3C  6100 FF24 4377          bsr       _ltoa
08002C40  DEFC 000C 4378          add.w     #12,A7
08002C44  4E5E      4379          unlk      A6
08002C46  4E75      4380          rts
                    4381   _ftoa:
08002C48  4E56 FFF4 4382          link      A6,#-12
08002C4C  206E 0010 4383          move.l    16(A6),A0
08002C50  43EE FFF4 4384          lea       -12(A6),A1
08002C54  F22E 5400 4385          fmove.d   8(A6),FP0
08002C58  0008      
08002C5A  F211 6C11 4386          fmove.p   FP0,(A1){#17}
08002C5E  3011      4387          move.w    (A1),D0
08002C60  6B04      4388          bmi.s     ftoa_1
08002C62  7200      4389          moveq     #0,D1
08002C64  6006      4390          bra.s     ftoa_2
                    4391   ftoa_1:
08002C66  10FC 002D 4392          move.b    #'-',(A0)+
08002C6A  7201      4393          moveq     #1,D1
                    4394   ftoa_2:
08002C6C  C07C 7FFF 4395          and.w     #$7FFF,D0
08002C70  0C40 7FFF 4396          cmp.w     #$7FFF,D0
08002C74  6646      4397          bne.s     ftoa_7
08002C76  202E FFF8 4398          move.l    -8(A6),D0
08002C7A  80AE FFFC 4399          or.l      -4(A6),D0
08002C7E  671E      4400          beq.s     ftoa_8
08002C80  4A81      4401          tst.l     D1
08002C82  6604      4402          bne.s     ftoa_9
08002C84  10FC 002B 4403          move.b    #'+',(A0)+
                    4404   ftoa_9:
08002C88  10FC 004E 4405          move.b    #'N',(A0)+
08002C8C  10FC 0041 4406          move.b    #'A',(A0)+
08002C90  10FC 004E 4407          move.b    #'N',(A0)+
08002C94  4210      4408          clr.b     (A0)
08002C96  303C 03E8 4409          move.w    #1000,D0
08002C9A  6000 00AE 4410          bra       ftoa_6
                    4411   ftoa_8:
08002C9E  4A81      4412          tst.l     D1
08002CA0  6604      4413          bne.s     ftoa_10
08002CA2  10FC 002B 4414          move.b    #'+',(A0)+
                    4415   ftoa_10:
08002CA6  10FC 0049 4416          move.b    #'I',(A0)+
08002CAA  10FC 004E 4417          move.b    #'N',(A0)+
08002CAE  10FC 0046 4418          move.b    #'F',(A0)+
08002CB2  4210      4419          clr.b     (A0)
08002CB4  303C 03E8 4420          move.w    #1000,D0
08002CB8  6000 0090 4421          bra       ftoa_6
                    4422   ftoa_7:
08002CBC  43EE FFF7 4423          lea       -9(A6),A1
08002CC0  1019      4424          move.b    (A1)+,D0
08002CC2  C03C 000F 4425          and.b     #$0F,D0
08002CC6  803C 0030 4426          or.b      #$30,D0
08002CCA  10C0      4427          move.b    D0,(A0)+
08002CCC  10FC 002E 4428          move.b    #'.',(A0)+
08002CD0  7207      4429          moveq     #7,D1
                    4430   ftoa_3:
08002CD2  1011      4431          move.b    (A1),D0
08002CD4  E808      4432          lsr.b     #4,D0
08002CD6  803C 0030 4433          or.b      #$30,D0
08002CDA  10C0      4434          move.b    D0,(A0)+
08002CDC  1019      4435          move.b    (A1)+,D0
08002CDE  C03C 000F 4436          and.b     #$0F,D0
08002CE2  803C 0030 4437          or.b      #$30,D0
08002CE6  10C0      4438          move.b    D0,(A0)+
08002CE8  51C9 FFE8 4439          dbf       D1,ftoa_3
08002CEC  10FC 0045 4440          move.b    #'E',(A0)+
08002CF0  43EE FFF4 4441          lea       -12(A6),A1
08002CF4  1011      4442          move.b    (A1),D0
08002CF6  C03C 0040 4443          and.b     #$40,D0
08002CFA  6608      4444          bne.s     ftoa_4
08002CFC  10FC 002B 4445          move.b    #'+',(A0)+
08002D00  4280      4446          clr.l     D0
08002D02  600A      4447          bra.s     ftoa_5
                    4448   ftoa_4:
08002D04  10FC 002D 4449          move.b    #'-',(A0)+
08002D08  203C 8000 4450          move.l    #$80000000,D0
08002D0C  0000      
                    4451   ftoa_5:
08002D0E  1019      4452          move.b    (A1)+,D0
08002D10  C07C 000F 4453          and.w     #$0F,D0
08002D14  3200      4454          move.w    D0,D1
08002D16  6706      4455          beq.s     ftoa_11
08002D18  803C 0030 4456          or.b      #$30,D0
08002D1C  10C0      4457          move.b    D0,(A0)+
                    4458   ftoa_11:
08002D1E  1011      4459          move.b    (A1),D0
08002D20  E808      4460          lsr.b     #4,D0
08002D22  C3FC 000A 4461          muls      #10,D1
08002D26  D240      4462          add.w     D0,D1
08002D28  803C 0030 4463          or.b      #$30,D0
08002D2C  10C0      4464          move.b    D0,(A0)+
08002D2E  1019      4465          move.b    (A1)+,D0
08002D30  C03C 000F 4466          and.b     #$0F,D0
08002D34  C3FC 000A 4467          muls      #10,D1
08002D38  D240      4468          add.w     D0,D1
08002D3A  803C 0030 4469          or.b      #$30,D0
08002D3E  10C0      4470          move.b    D0,(A0)+
08002D40  4210      4471          clr.b     (A0)
08002D42  3001      4472          move.w    D1,D0
08002D44  4A80      4473          tst.l     D0
08002D46  6A02      4474          bpl.s     ftoa_6
08002D48  4440      4475          neg.w     D0
                    4476   ftoa_6
08002D4A  48C0      4477          ext.l     D0
08002D4C  4E5E      4478          unlk      A6
08002D4E  4E75      4479          rts
                    4480   _strlen:
08002D50  206F 0004 4481          move.l    (4,A7),A0
08002D54  2248      4482          move.l    A0,A1
                    4483   strlen_1:
08002D56  4A19      4484          tst.b     (A1)+
08002D58  66FC      4485          bne       strlen_1
08002D5A  2009      4486          move.l    A1,D0
08002D5C  9088      4487          sub.l     A0,D0
08002D5E  5380      4488          subq.l    #1,D0
08002D60  4E75      4489          rts
                    4490   _strchr:
08002D62  206F 0004 4491          move.l    (4,A7),A0
08002D66  202F 0008 4492          move.l    (8,A7),D0
                    4493   strchr_0:
08002D6A  4A10      4494          tst.b     (A0)
08002D6C  670A      4495          beq.s     strchr_1
08002D6E  B018      4496          cmp.b     (A0)+,D0
08002D70  66F8      4497          bne       strchr_0
08002D72  2008      4498          move.l    A0,D0
08002D74  5380      4499          subq.l    #1,D0
08002D76  4E75      4500          rts
                    4501   strchr_1:
08002D78  4280      4502          clr.l     D0
08002D7A  4E75      4503          rts
                    4504   _strcpy:
08002D7C  206F 0004 4505          move.l    (4,A7),A0
08002D80  226F 0008 4506          move.l    (8,A7),A1
08002D84  2008      4507          move.l    A0,D0
                    4508   strcpy_1:
08002D86  10D9      4509          move.b    (A1)+,(A0)+
08002D88  66FC      4510          bne       strcpy_1
08002D8A  4E75      4511          rts
                    4512          section   const
08002D8C            4513                   align
                    4514   
                    4515   
                    4516   @speedt~1_1:
08002D8C  0A0A 5374 4517          dc.b      10,10,83,116,97,114,116,46,46,46,46,46,0
08002D90  6172 742E 
08002D94  2E2E 2E2E 
08002D98  00        
                    4518   @speedt~1_2:
08002D9A  2564 2000 4519          dc.b      37,100,32,0
                    4520   @speedt~1_3:
08002D9E  0A0A 446F 4521          dc.b      10,10,68,111,110,101,46,46,46,46,46,0
08002DA2  6E65 2E2E 
08002DA6  2E2E 2E00 
                    4522   @speedt~1_4:
08002DAA  0D0A 4865 4523          dc.b      13,10,72,101,108,108,111,32,67,80,69,78,32,52
08002DAE  6C6C 6F20 
08002DB2  4350 454E 
08002DB6  2034      
08002DB8  3132 2054 4524          dc.b      49,50,32,84,65,13,10,87,101,108,99,111,109,101
08002DBC  410D 0A57 
08002DC0  656C 636F 
08002DC4  6D65      
08002DC6  2074 6F20 4525          dc.b      32,116,111,32,76,97,98,51,33,33,33,13,10,0
08002DCA  4C61 6233 
08002DCE  2121 210D 
08002DD2  0A00      
                    4526          section   data
08002DD4            4527                   align
                    4528   
                    4529   *********************************************************************************************************************************************************
                    4530   * Section for Initialised Data (in theory should be copied to Ram at startup) but is part of program code as we copy whole program to ram at startup
                    4531   ********************************************************************************************************************************************************
                    4532   
          0800 2DD4 4533   DataStart       equ       *
08002DD4            4534   __ungetbuf:     ds.l      1                    ungetbuffer for stdio functions
08002DD8            4535   __allocp:       ds.l      1                    start of free memory block list
08002DDC            4536   __heap:         ds.l      1                    begin of free memory
                    4537   
                    4538   
                    4539   @vsscanf_bufx:
08002DE0  0802 03DE 4540          dc.l      @vsscanf_buf
                    4541   @vsscanf_1:
08002DE4  0A00      4542          dc.b      10,0
                    4543   strtod_nan:
08002DE6  4FFF 000F 4544          dc.b      79,255,0,15,255,255,255,255,255,255,255,255
08002DEA  FFFF FFFF 
08002DEE  FFFF FFFF 
                    4545   strtod_inf:
08002DF2  4FFF 0000 4546          dc.b      79,255,0,0,0,0,0,0,0,0,0,0
08002DF6  0000 0000 
08002DFA  0000 0000 
                    4547   __ctype:
08002DFE  0040 4040 4548          dc.b      0,64,64,64,64,64,64,64,64,64,80,80,80,80,80
08002E02  4040 4040 
08002E06  4040 5050 
08002E0A  5050 50   
08002E0D  4040 4040 4549          dc.b      64,64,64,64,64,64,64,64,64,64,64,64,64,64,64
08002E11  4040 4040 
08002E15  4040 4040 
08002E19  4040 40   
08002E1C  4040 40D0 4550          dc.b      64,64,64,208,160,160,160,160,160,160,160,160
08002E20  A0A0 A0A0 
08002E24  A0A0 A0A0 
08002E28  A0A0 A0A0 4551          dc.b      160,160,160,160,160,160,160,140,140,140,140
08002E2C  A0A0 A08C 
08002E30  8C8C 8C   
08002E33  8C8C 8C8C 4552          dc.b      140,140,140,140,140,140,160,160,160,160,160
08002E37  8C8C A0A0 
08002E3B  A0A0 A0   
08002E3E  A0A0 8A8A 4553          dc.b      160,160,138,138,138,138,138,138,130,130,130
08002E42  8A8A 8A8A 
08002E46  8282 82   
08002E49  8282 8282 4554          dc.b      130,130,130,130,130,130,130,130,130,130,130
08002E4D  8282 8282 
08002E51  8282 82   
08002E54  8282 8282 4555          dc.b      130,130,130,130,130,130,160,160,160,160,160
08002E58  8282 A0A0 
08002E5C  A0A0 A0   
08002E5F  A089 8989 4556          dc.b      160,137,137,137,137,137,137,129,129,129,129
08002E63  8989 8981 
08002E67  8181 81   
08002E6A  8181 8181 4557          dc.b      129,129,129,129,129,129,129,129,129,129,129
08002E6E  8181 8181 
08002E72  8181 81   
08002E75  8181 8181 4558          dc.b      129,129,129,129,129,160,160,160,160,64,0,0,0
08002E79  81A0 A0A0 
08002E7D  A040 0000 
08002E81  00        
08002E82  0000 0000 4559          dc.b      0,0,0,0,0,0,0,0,0,0,0,0,0,0,0,0,0,0,0,0,0,0
08002E86  0000 0000 
08002E8A  0000 0000 
08002E8E  0000 0000 
08002E92  0000 0000 
08002E96  0000      
08002E98  0000 0000 4560          dc.b      0,0,0,0,0,0,0,0,0,0,0,0,0,0,0,0,0,0,0,0,0,0
08002E9C  0000 0000 
08002EA0  0000 0000 
08002EA4  0000 0000 
08002EA8  0000 0000 
08002EAC  0000      
08002EAE  0000 0000 4561          dc.b      0,0,0,0,0,0,0,0,0,0,0,0,0,0,0,0,0,0,0,0,0,0
08002EB2  0000 0000 
08002EB6  0000 0000 
08002EBA  0000 0000 
08002EBE  0000 0000 
08002EC2  0000      
08002EC4  0000 0000 4562          dc.b      0,0,0,0,0,0,0,0,0,0,0,0,0,0,0,0,0,0,0,0,0,0
08002EC8  0000 0000 
08002ECC  0000 0000 
08002ED0  0000 0000 
08002ED4  0000 0000 
08002ED8  0000      
08002EDA  0000 0000 4563          dc.b      0,0,0,0,0,0,0,0,0,0,0,0,0,0,0,0,0,0,0,0,0,0
08002EDE  0000 0000 
08002EE2  0000 0000 
08002EE6  0000 0000 
08002EEA  0000 0000 
08002EEE  0000      
08002EF0  0000 0000 4564          dc.b      0,0,0,0,0,0,0,0,0,0,0,0,0,0,0
08002EF4  0000 0000 
08002EF8  0000 0000 
08002EFC  0000 00   
                    4565   @vsprintf_1:
08002F00  2E00      4566          dc.b      46,0
                    4567   @itoa_1:
08002F02  2D32 3134 4568          dc.b      45,50,49,52,55,52,56,51,54,52,56,0
08002F06  3734 3833 
08002F0A  3634 3800 
                    4569          section   bss
08002F0E            4570                   align
                    4571   
          0800 2F0E 4572   DataEnd         equ       *                    this label will equate to the address of the last byte of global variable in it
          0000 013A 4573   DataLength      equ       DataEnd-DataStart    length of data needed to copy to Ram on bootup
                    4574   
                    4575   *********************************************************************************************************
                    4576   * Section for uninitialised Data which is set to zero, i.e. we should set this space to zero at starup
                    4577   *********************************************************************************************************
          0800 2F0E 4578   BssStart       equ       *
                    4579   
                    4580   _a:
08002F0E            4581          ds.b      40000
                    4582   _b:
0800CB4E            4583          ds.b      40000
                    4584   _c:
0801678E            4585          ds.b      40000
                    4586   _i:
080203CE            4587          ds.b      4
                    4588   _j:
080203D2            4589          ds.b      4
                    4590   _k:
080203D6            4591          ds.b      4
                    4592   _sum:
080203DA            4593          ds.b      4
                    4594   @vsscanf_buf:
080203DE            4595          ds.b      80
                    4596          section   heap
0802042E            4597                  align
                    4598   
          0802 042E 4599   BssEnd         equ       *
          0001 D520 4600   BssLength      equ       BssEnd-BssStart       length of zeroed data needed to copy to Ram on bootup
                    4601   
                    4602   *********************************************************************************************************
                    4603   * Section for Heap
                    4604   *********************************************************************************************************
                    4605   
          0802 042E 4606   heap           equ       *
0802042E            4607                  align
          0800 0000

Assembly errors: 0, warnings: 1
